Archive member included because of file (symbol)

../../../../../ports/arm-cortex/qk/gnu/dbg\libqk_cortex-m3.a(qk.o)
                              dbg/main.o (QActive_start)
../../../../../ports/arm-cortex/qk/gnu/dbg\libqk_cortex-m3.a(qk_sched.o)
                              ../../../../../ports/arm-cortex/qk/gnu/dbg\libqk_cortex-m3.a(qk.o) (QK_schedule_)
../../../../../ports/arm-cortex/qk/gnu/dbg\libqk_cortex-m3.a(qk_mutex.o)
                              ../../../../../ports/arm-cortex/qk/gnu/dbg\libqk_cortex-m3.a(qk_sched.o) (QK_ceilingPrio_)
../../../../../ports/arm-cortex/qk/gnu/dbg\libqk_cortex-m3.a(qk_port.o)
                              ../../../../../ports/arm-cortex/qk/gnu/dbg\libqk_cortex-m3.a(qk.o) (QK_init)
../../../../../ports/arm-cortex/qk/gnu/dbg\libqf_cortex-m3.a(qa_fifo.o)
                              dbg/bsp.o (QActive_postFIFO)
../../../../../ports/arm-cortex/qk/gnu/dbg\libqf_cortex-m3.a(qa_get_.o)
                              ../../../../../ports/arm-cortex/qk/gnu/dbg\libqk_cortex-m3.a(qk_sched.o) (QActive_get_)
../../../../../ports/arm-cortex/qk/gnu/dbg\libqf_cortex-m3.a(qa_sub.o)
                              dbg/philo.o (QActive_subscribe)
../../../../../ports/arm-cortex/qk/gnu/dbg\libqf_cortex-m3.a(qeq_init.o)
                              ../../../../../ports/arm-cortex/qk/gnu/dbg\libqk_cortex-m3.a(qk.o) (QEQueue_init)
../../../../../ports/arm-cortex/qk/gnu/dbg\libqf_cortex-m3.a(qf_act.o)
                              dbg/bsp.o (QF_getVersion)
../../../../../ports/arm-cortex/qk/gnu/dbg\libqf_cortex-m3.a(qf_gc.o)
                              ../../../../../ports/arm-cortex/qk/gnu/dbg\libqk_cortex-m3.a(qk_sched.o) (QF_gc)
../../../../../ports/arm-cortex/qk/gnu/dbg\libqf_cortex-m3.a(qf_log2.o)
                              ../../../../../ports/arm-cortex/qk/gnu/dbg\libqk_cortex-m3.a(qk_sched.o) (QF_log2Lkup)
../../../../../ports/arm-cortex/qk/gnu/dbg\libqf_cortex-m3.a(qf_new.o)
                              dbg/bsp.o (QF_new_)
../../../../../ports/arm-cortex/qk/gnu/dbg\libqf_cortex-m3.a(qf_pool.o)
                              dbg/main.o (QF_poolInit)
../../../../../ports/arm-cortex/qk/gnu/dbg\libqf_cortex-m3.a(qf_psini.o)
                              dbg/main.o (QF_psInit)
../../../../../ports/arm-cortex/qk/gnu/dbg\libqf_cortex-m3.a(qf_pspub.o)
                              dbg/philo.o (QF_publish)
../../../../../ports/arm-cortex/qk/gnu/dbg\libqf_cortex-m3.a(qf_pwr2.o)
                              ../../../../../ports/arm-cortex/qk/gnu/dbg\libqf_cortex-m3.a(qa_fifo.o) (QF_pwr2Lkup)
../../../../../ports/arm-cortex/qk/gnu/dbg\libqf_cortex-m3.a(qf_tick.o)
                              dbg/bsp.o (QF_tick)
../../../../../ports/arm-cortex/qk/gnu/dbg\libqf_cortex-m3.a(qmp_get.o)
                              ../../../../../ports/arm-cortex/qk/gnu/dbg\libqf_cortex-m3.a(qf_new.o) (QMPool_get)
../../../../../ports/arm-cortex/qk/gnu/dbg\libqf_cortex-m3.a(qmp_init.o)
                              ../../../../../ports/arm-cortex/qk/gnu/dbg\libqf_cortex-m3.a(qf_pool.o) (QMPool_init)
../../../../../ports/arm-cortex/qk/gnu/dbg\libqf_cortex-m3.a(qmp_put.o)
                              ../../../../../ports/arm-cortex/qk/gnu/dbg\libqf_cortex-m3.a(qf_gc.o) (QMPool_put)
../../../../../ports/arm-cortex/qk/gnu/dbg\libqf_cortex-m3.a(qte_ctor.o)
                              dbg/philo.o (QTimeEvt_ctor)
../../../../../ports/arm-cortex/qk/gnu/dbg\libqf_cortex-m3.a(qte_arm.o)
                              dbg/philo.o (QTimeEvt_arm_)
../../../../../ports/arm-cortex/qk/gnu/dbg\libqep_cortex-m3.a(qhsm_ini.o)
                              ../../../../../ports/arm-cortex/qk/gnu/dbg\libqk_cortex-m3.a(qk.o) (QHsm_init)
../../../../../ports/arm-cortex/qk/gnu/dbg\libqep_cortex-m3.a(qhsm_dis.o)
                              ../../../../../ports/arm-cortex/qk/gnu/dbg\libqk_cortex-m3.a(qk_sched.o) (QHsm_dispatch)
../../../../../ports/arm-cortex/qk/gnu/dbg\libqep_cortex-m3.a(qhsm_top.o)
                              dbg/philo.o (QHsm_top)
../../../../../ports/arm-cortex/qk/gnu/dbg\libqep_cortex-m3.a(qep.o)
                              ../../../../../ports/arm-cortex/qk/gnu/dbg\libqep_cortex-m3.a(qhsm_ini.o) (QEP_reservedEvt_)
c:/tools/devkitpro/devkitarm/bin/../lib/gcc/arm-eabi/4.4.2/../../../../arm-eabi/lib/thumb/thumb2\libc.a(lib_a-atexit.o)
                              c:/tools/devkitpro/devkitarm/bin/../lib/gcc/arm-eabi/4.4.2/../../../../arm-eabi/lib/thumb/thumb2/crt0.o (atexit)
c:/tools/devkitpro/devkitarm/bin/../lib/gcc/arm-eabi/4.4.2/../../../../arm-eabi/lib/thumb/thumb2\libc.a(lib_a-exit.o)
                              c:/tools/devkitpro/devkitarm/bin/../lib/gcc/arm-eabi/4.4.2/../../../../arm-eabi/lib/thumb/thumb2/crt0.o (exit)
c:/tools/devkitpro/devkitarm/bin/../lib/gcc/arm-eabi/4.4.2/../../../../arm-eabi/lib/thumb/thumb2\libc.a(lib_a-impure.o)
                              c:/tools/devkitpro/devkitarm/bin/../lib/gcc/arm-eabi/4.4.2/../../../../arm-eabi/lib/thumb/thumb2\libc.a(lib_a-exit.o) (_global_impure_ptr)
c:/tools/devkitpro/devkitarm/bin/../lib/gcc/arm-eabi/4.4.2/../../../../arm-eabi/lib/thumb/thumb2\libc.a(lib_a-init.o)
                              c:/tools/devkitpro/devkitarm/bin/../lib/gcc/arm-eabi/4.4.2/../../../../arm-eabi/lib/thumb/thumb2/crt0.o (__libc_fini_array)
c:/tools/devkitpro/devkitarm/bin/../lib/gcc/arm-eabi/4.4.2/../../../../arm-eabi/lib/thumb/thumb2\libc.a(lib_a-memset.o)
                              c:/tools/devkitpro/devkitarm/bin/../lib/gcc/arm-eabi/4.4.2/../../../../arm-eabi/lib/thumb/thumb2/crt0.o (memset)
c:/tools/devkitpro/devkitarm/bin/../lib/gcc/arm-eabi/4.4.2/../../../../arm-eabi/lib/thumb/thumb2\libc.a(lib_a-__atexit.o)
                              c:/tools/devkitpro/devkitarm/bin/../lib/gcc/arm-eabi/4.4.2/../../../../arm-eabi/lib/thumb/thumb2\libc.a(lib_a-atexit.o) (__register_exitproc)
c:/tools/devkitpro/devkitarm/bin/../lib/gcc/arm-eabi/4.4.2/../../../../arm-eabi/lib/thumb/thumb2\libc.a(lib_a-__call_atexit.o)
                              c:/tools/devkitpro/devkitarm/bin/../lib/gcc/arm-eabi/4.4.2/../../../../arm-eabi/lib/thumb/thumb2\libc.a(lib_a-exit.o) (__call_exitprocs)
c:/tools/devkitpro/devkitarm/bin/../lib/gcc/arm-eabi/4.4.2/../../../../arm-eabi/lib/thumb/thumb2\libc.a(lib_a-findfp.o)
                              c:/tools/devkitpro/devkitarm/bin/../lib/gcc/arm-eabi/4.4.2/../../../../arm-eabi/lib/thumb/thumb2\libc.a(lib_a-impure.o) (__sf_fake_stdin)
c:/tools/devkitpro/devkitarm/bin/../lib/gcc/arm-eabi/4.4.2/../../../../arm-eabi/lib/thumb/thumb2\libc.a(lib_a-fwalk.o)
                              c:/tools/devkitpro/devkitarm/bin/../lib/gcc/arm-eabi/4.4.2/../../../../arm-eabi/lib/thumb/thumb2\libc.a(lib_a-findfp.o) (_fwalk)
c:/tools/devkitpro/devkitarm/bin/../lib/gcc/arm-eabi/4.4.2/../../../../arm-eabi/lib/thumb/thumb2\libc.a(lib_a-mallocr.o)
                              c:/tools/devkitpro/devkitarm/bin/../lib/gcc/arm-eabi/4.4.2/../../../../arm-eabi/lib/thumb/thumb2\libc.a(lib_a-findfp.o) (_malloc_r)
c:/tools/devkitpro/devkitarm/bin/../lib/gcc/arm-eabi/4.4.2/../../../../arm-eabi/lib/thumb/thumb2\libc.a(lib_a-mlock.o)
                              c:/tools/devkitpro/devkitarm/bin/../lib/gcc/arm-eabi/4.4.2/../../../../arm-eabi/lib/thumb/thumb2\libc.a(lib_a-mallocr.o) (__malloc_lock)
c:/tools/devkitpro/devkitarm/bin/../lib/gcc/arm-eabi/4.4.2/../../../../arm-eabi/lib/thumb/thumb2\libc.a(lib_a-stdio.o)
                              c:/tools/devkitpro/devkitarm/bin/../lib/gcc/arm-eabi/4.4.2/../../../../arm-eabi/lib/thumb/thumb2\libc.a(lib_a-findfp.o) (__sclose)
c:/tools/devkitpro/devkitarm/bin/../lib/gcc/arm-eabi/4.4.2/../../../../arm-eabi/lib/thumb/thumb2\libc.a(lib_a-fclose.o)
                              c:/tools/devkitpro/devkitarm/bin/../lib/gcc/arm-eabi/4.4.2/../../../../arm-eabi/lib/thumb/thumb2\libc.a(lib_a-findfp.o) (fclose)
c:/tools/devkitpro/devkitarm/bin/../lib/gcc/arm-eabi/4.4.2/../../../../arm-eabi/lib/thumb/thumb2\libc.a(lib_a-fflush.o)
                              c:/tools/devkitpro/devkitarm/bin/../lib/gcc/arm-eabi/4.4.2/../../../../arm-eabi/lib/thumb/thumb2\libc.a(lib_a-fclose.o) (_fflush_r)
c:/tools/devkitpro/devkitarm/bin/../lib/gcc/arm-eabi/4.4.2/../../../../arm-eabi/lib/thumb/thumb2\libc.a(lib_a-freer.o)
                              c:/tools/devkitpro/devkitarm/bin/../lib/gcc/arm-eabi/4.4.2/../../../../arm-eabi/lib/thumb/thumb2\libc.a(lib_a-mallocr.o) (_free_r)
c:/tools/devkitpro/devkitarm/bin/../lib/gcc/arm-eabi/4.4.2/../../../../arm-eabi/lib/thumb/thumb2\libsysbase.a(close.o)
                              c:/tools/devkitpro/devkitarm/bin/../lib/gcc/arm-eabi/4.4.2/../../../../arm-eabi/lib/thumb/thumb2\libc.a(lib_a-stdio.o) (_close_r)
c:/tools/devkitpro/devkitarm/bin/../lib/gcc/arm-eabi/4.4.2/../../../../arm-eabi/lib/thumb/thumb2\libsysbase.a(lseek.o)
                              c:/tools/devkitpro/devkitarm/bin/../lib/gcc/arm-eabi/4.4.2/../../../../arm-eabi/lib/thumb/thumb2\libc.a(lib_a-stdio.o) (_lseek_r)
c:/tools/devkitpro/devkitarm/bin/../lib/gcc/arm-eabi/4.4.2/../../../../arm-eabi/lib/thumb/thumb2\libsysbase.a(read.o)
                              c:/tools/devkitpro/devkitarm/bin/../lib/gcc/arm-eabi/4.4.2/../../../../arm-eabi/lib/thumb/thumb2\libc.a(lib_a-stdio.o) (_read_r)
c:/tools/devkitpro/devkitarm/bin/../lib/gcc/arm-eabi/4.4.2/../../../../arm-eabi/lib/thumb/thumb2\libsysbase.a(sbrk.o)
                              c:/tools/devkitpro/devkitarm/bin/../lib/gcc/arm-eabi/4.4.2/../../../../arm-eabi/lib/thumb/thumb2\libc.a(lib_a-mallocr.o) (_sbrk_r)
c:/tools/devkitpro/devkitarm/bin/../lib/gcc/arm-eabi/4.4.2/../../../../arm-eabi/lib/thumb/thumb2\libsysbase.a(write.o)
                              c:/tools/devkitpro/devkitarm/bin/../lib/gcc/arm-eabi/4.4.2/../../../../arm-eabi/lib/thumb/thumb2\libc.a(lib_a-stdio.o) (_write_r)
c:/tools/devkitpro/devkitarm/bin/../lib/gcc/arm-eabi/4.4.2/../../../../arm-eabi/lib/thumb/thumb2\libsysbase.a(_exit.o)
                              c:/tools/devkitpro/devkitarm/bin/../lib/gcc/arm-eabi/4.4.2/../../../../arm-eabi/lib/thumb/thumb2\libc.a(lib_a-exit.o) (_exit)
c:/tools/devkitpro/devkitarm/bin/../lib/gcc/arm-eabi/4.4.2/../../../../arm-eabi/lib/thumb/thumb2\libsysbase.a(malloc_vars.o)
                              c:/tools/devkitpro/devkitarm/bin/../lib/gcc/arm-eabi/4.4.2/../../../../arm-eabi/lib/thumb/thumb2\libsysbase.a(sbrk.o) (fake_heap_end)
c:/tools/devkitpro/devkitarm/bin/../lib/gcc/arm-eabi/4.4.2/../../../../arm-eabi/lib/thumb/thumb2\libsysbase.a(syscall_support.o)
                              c:/tools/devkitpro/devkitarm/bin/../lib/gcc/arm-eabi/4.4.2/../../../../arm-eabi/lib/thumb/thumb2\libsysbase.a(_exit.o) (__syscalls)
c:/tools/devkitpro/devkitarm/bin/../lib/gcc/arm-eabi/4.4.2/../../../../arm-eabi/lib/thumb/thumb2\libsysbase.a(handle_manager.o)
                              c:/tools/devkitpro/devkitarm/bin/../lib/gcc/arm-eabi/4.4.2/../../../../arm-eabi/lib/thumb/thumb2\libsysbase.a(close.o) (__get_handle)
c:/tools/devkitpro/devkitarm/bin/../lib/gcc/arm-eabi/4.4.2/../../../../arm-eabi/lib/thumb/thumb2\libsysbase.a(iosupport.o)
                              c:/tools/devkitpro/devkitarm/bin/../lib/gcc/arm-eabi/4.4.2/../../../../arm-eabi/lib/thumb/thumb2\libsysbase.a(close.o) (devoptab_list)
c:/tools/devkitpro/devkitarm/bin/../lib/gcc/arm-eabi/4.4.2/../../../../arm-eabi/lib/thumb/thumb2\libc.a(lib_a-strchr.o)
                              c:/tools/devkitpro/devkitarm/bin/../lib/gcc/arm-eabi/4.4.2/../../../../arm-eabi/lib/thumb/thumb2\libsysbase.a(iosupport.o) (strchr)
c:/tools/devkitpro/devkitarm/bin/../lib/gcc/arm-eabi/4.4.2/../../../../arm-eabi/lib/thumb/thumb2\libc.a(lib_a-strcmp.o)
                              c:/tools/devkitpro/devkitarm/bin/../lib/gcc/arm-eabi/4.4.2/../../../../arm-eabi/lib/thumb/thumb2\libsysbase.a(iosupport.o) (strcmp)
c:/tools/devkitpro/devkitarm/bin/../lib/gcc/arm-eabi/4.4.2/../../../../arm-eabi/lib/thumb/thumb2\libc.a(lib_a-strlen.o)
                              c:/tools/devkitpro/devkitarm/bin/../lib/gcc/arm-eabi/4.4.2/../../../../arm-eabi/lib/thumb/thumb2\libsysbase.a(iosupport.o) (strlen)
c:/tools/devkitpro/devkitarm/bin/../lib/gcc/arm-eabi/4.4.2/../../../../arm-eabi/lib/thumb/thumb2\libc.a(lib_a-strncmp.o)
                              c:/tools/devkitpro/devkitarm/bin/../lib/gcc/arm-eabi/4.4.2/../../../../arm-eabi/lib/thumb/thumb2\libsysbase.a(iosupport.o) (strncmp)

Allocating common symbols
Common symbol       size              file

QF_maxSignal_       0x1               ../../../../../ports/arm-cortex/qk/gnu/dbg\libqf_cortex-m3.a(qf_psini.o)
QF_intLockNest_     0x1               ../../../../../ports/arm-cortex/qk/gnu/dbg\libqf_cortex-m3.a(qf_act.o)
QF_timeEvtListHead_
                    0x4               ../../../../../ports/arm-cortex/qk/gnu/dbg\libqf_cortex-m3.a(qte_arm.o)
QK_readySet_        0x9               ../../../../../ports/arm-cortex/qk/gnu/dbg\libqk_cortex-m3.a(qk.o)
QF_pool_            0x3c              ../../../../../ports/arm-cortex/qk/gnu/dbg\libqf_cortex-m3.a(qf_pool.o)
QF_active_          0x100             ../../../../../ports/arm-cortex/qk/gnu/dbg\libqf_cortex-m3.a(qf_act.o)
QK_ceilingPrio_     0x1               ../../../../../ports/arm-cortex/qk/gnu/dbg\libqk_cortex-m3.a(qk_mutex.o)
QK_intNest_         0x1               ../../../../../ports/arm-cortex/qk/gnu/dbg\libqk_cortex-m3.a(qk.o)
QF_subscrList_      0x4               ../../../../../ports/arm-cortex/qk/gnu/dbg\libqf_cortex-m3.a(qf_psini.o)
QF_maxPool_         0x1               ../../../../../ports/arm-cortex/qk/gnu/dbg\libqf_cortex-m3.a(qf_pool.o)
TS_State            0x8               dbg/stm3210c_eval_ioe.o

Discarded input sections

 .text          0x00000000        0x0 c:/tools/devkitpro/devkitarm/bin/../lib/gcc/arm-eabi/4.4.2/thumb/thumb2/crti.o
 .data          0x00000000        0x0 c:/tools/devkitpro/devkitarm/bin/../lib/gcc/arm-eabi/4.4.2/thumb/thumb2/crti.o
 .bss           0x00000000        0x0 c:/tools/devkitpro/devkitarm/bin/../lib/gcc/arm-eabi/4.4.2/thumb/thumb2/crti.o
 .data          0x00000000        0x4 c:/tools/devkitpro/devkitarm/bin/../lib/gcc/arm-eabi/4.4.2/thumb/thumb2/crtbegin.o
 .text          0x00000000       0x70 c:/tools/devkitpro/devkitarm/bin/../lib/gcc/arm-eabi/4.4.2/../../../../arm-eabi/lib/thumb/thumb2/crt0.o
 .data          0x00000000        0x0 c:/tools/devkitpro/devkitarm/bin/../lib/gcc/arm-eabi/4.4.2/../../../../arm-eabi/lib/thumb/thumb2/crt0.o
 .bss           0x00000000        0x0 c:/tools/devkitpro/devkitarm/bin/../lib/gcc/arm-eabi/4.4.2/../../../../arm-eabi/lib/thumb/thumb2/crt0.o
 .ARM.extab     0x00000000        0x0 c:/tools/devkitpro/devkitarm/bin/../lib/gcc/arm-eabi/4.4.2/../../../../arm-eabi/lib/thumb/thumb2/crt0.o
 .ARM.exidx     0x00000000        0x8 c:/tools/devkitpro/devkitarm/bin/../lib/gcc/arm-eabi/4.4.2/../../../../arm-eabi/lib/thumb/thumb2/crt0.o
 .data          0x00000000        0x0 dbg/bsp.o
 .bss           0x00000000        0x0 dbg/bsp.o
 .data          0x00000000        0x0 dbg/main.o
 .text          0x00000000       0x44 dbg/no_heap.o
 .data          0x00000000        0x0 dbg/no_heap.o
 .bss           0x00000000        0x0 dbg/no_heap.o
 .rodata        0x00000000        0xc dbg/no_heap.o
 .data          0x00000000        0x0 dbg/philo.o
 .data          0x00000000        0x0 dbg/table.o
 .data          0x00000000        0x0 dbg/startup_stm32f10x_cl.o
 .bss           0x00000000        0x0 dbg/startup_stm32f10x_cl.o
 .text          0x00000000       0xa4 dbg/core_cm3.o
 .data          0x00000000        0x0 dbg/core_cm3.o
 .bss           0x00000000        0x0 dbg/core_cm3.o
 .data          0x00000000        0x0 dbg/system_stm32f10x.o
 .bss           0x00000000        0x0 dbg/system_stm32f10x.o
 .bss           0x00000000        0x0 dbg/stm32_eval.o
 .text          0x00000000      0xf90 dbg/stm3210c_eval_ioe.o
 .data          0x00000000        0x4 dbg/stm3210c_eval_ioe.o
 .bss           0x00000000        0xc dbg/stm3210c_eval_ioe.o
 COMMON         0x00000000        0x8 dbg/stm3210c_eval_ioe.o
 .data          0x00000000        0x0 dbg/misc.o
 .bss           0x00000000        0x0 dbg/misc.o
 .text          0x00000000      0x448 dbg/stm32f10x_adc.o
 .data          0x00000000        0x0 dbg/stm32f10x_adc.o
 .bss           0x00000000        0x0 dbg/stm32f10x_adc.o
 .text          0x00000000      0x104 dbg/stm32f10x_bkp.o
 .data          0x00000000        0x0 dbg/stm32f10x_bkp.o
 .bss           0x00000000        0x0 dbg/stm32f10x_bkp.o
 .text          0x00000000      0x7d0 dbg/stm32f10x_can.o
 .data          0x00000000        0x0 dbg/stm32f10x_can.o
 .bss           0x00000000        0x0 dbg/stm32f10x_can.o
 .rodata        0x00000000        0x8 dbg/stm32f10x_can.o
 .text          0x00000000       0x70 dbg/stm32f10x_crc.o
 .data          0x00000000        0x0 dbg/stm32f10x_crc.o
 .bss           0x00000000        0x0 dbg/stm32f10x_crc.o
 .text          0x00000000      0x204 dbg/stm32f10x_dac.o
 .data          0x00000000        0x0 dbg/stm32f10x_dac.o
 .bss           0x00000000        0x0 dbg/stm32f10x_dac.o
 .text          0x00000000       0x4c dbg/stm32f10x_dbgmcu.o
 .data          0x00000000        0x0 dbg/stm32f10x_dbgmcu.o
 .bss           0x00000000        0x0 dbg/stm32f10x_dbgmcu.o
 .text          0x00000000      0x2bc dbg/stm32f10x_dma.o
 .data          0x00000000        0x0 dbg/stm32f10x_dma.o
 .bss           0x00000000        0x0 dbg/stm32f10x_dma.o
 .data          0x00000000        0x0 dbg/stm32f10x_exti.o
 .bss           0x00000000        0x0 dbg/stm32f10x_exti.o
 .text          0x00000000      0x684 dbg/stm32f10x_flash.o
 .data          0x00000000        0x0 dbg/stm32f10x_flash.o
 .bss           0x00000000        0x0 dbg/stm32f10x_flash.o
 .text          0x00000000      0x668 dbg/stm32f10x_fsmc.o
 .data          0x00000000        0x0 dbg/stm32f10x_fsmc.o
 .bss           0x00000000        0x0 dbg/stm32f10x_fsmc.o
 .data          0x00000000        0x0 dbg/stm32f10x_gpio.o
 .bss           0x00000000        0x0 dbg/stm32f10x_gpio.o
 .text          0x00000000      0x484 dbg/stm32f10x_i2c.o
 .data          0x00000000        0x0 dbg/stm32f10x_i2c.o
 .bss           0x00000000        0x0 dbg/stm32f10x_i2c.o
 .text          0x00000000       0x58 dbg/stm32f10x_iwdg.o
 .data          0x00000000        0x0 dbg/stm32f10x_iwdg.o
 .bss           0x00000000        0x0 dbg/stm32f10x_iwdg.o
 .text          0x00000000       0xdc dbg/stm32f10x_pwr.o
 .data          0x00000000        0x0 dbg/stm32f10x_pwr.o
 .bss           0x00000000        0x0 dbg/stm32f10x_pwr.o
 .bss           0x00000000        0x0 dbg/stm32f10x_rcc.o
 .text          0x00000000      0x18c dbg/stm32f10x_rtc.o
 .data          0x00000000        0x0 dbg/stm32f10x_rtc.o
 .bss           0x00000000        0x0 dbg/stm32f10x_rtc.o
 .text          0x00000000      0x290 dbg/stm32f10x_sdio.o
 .data          0x00000000        0x0 dbg/stm32f10x_sdio.o
 .bss           0x00000000        0x0 dbg/stm32f10x_sdio.o
 .data          0x00000000        0x0 dbg/stm32f10x_spi.o
 .bss           0x00000000        0x0 dbg/stm32f10x_spi.o
 .text          0x00000000      0xdd4 dbg/stm32f10x_tim.o
 .data          0x00000000        0x0 dbg/stm32f10x_tim.o
 .bss           0x00000000        0x0 dbg/stm32f10x_tim.o
 .data          0x00000000        0x0 dbg/stm32f10x_usart.o
 .bss           0x00000000        0x0 dbg/stm32f10x_usart.o
 .text          0x00000000       0xb0 dbg/stm32f10x_wwdg.o
 .data          0x00000000        0x0 dbg/stm32f10x_wwdg.o
 .bss           0x00000000        0x0 dbg/stm32f10x_wwdg.o
 .bss           0x00000000        0x0 ../../../../../ports/arm-cortex/qk/gnu/dbg\libqk_cortex-m3.a(qk.o)
 .data          0x00000000        0x0 ../../../../../ports/arm-cortex/qk/gnu/dbg\libqk_cortex-m3.a(qk_sched.o)
 .bss           0x00000000        0x0 ../../../../../ports/arm-cortex/qk/gnu/dbg\libqk_cortex-m3.a(qk_sched.o)
 .text          0x00000000       0x48 ../../../../../ports/arm-cortex/qk/gnu/dbg\libqk_cortex-m3.a(qk_mutex.o)
 .data          0x00000000        0x0 ../../../../../ports/arm-cortex/qk/gnu/dbg\libqk_cortex-m3.a(qk_mutex.o)
 .bss           0x00000000        0x0 ../../../../../ports/arm-cortex/qk/gnu/dbg\libqk_cortex-m3.a(qk_mutex.o)
 .text          0x00000000        0x0 ../../../../../ports/arm-cortex/qk/gnu/dbg\libqk_cortex-m3.a(qk_port.o)
 .data          0x00000000        0x0 ../../../../../ports/arm-cortex/qk/gnu/dbg\libqk_cortex-m3.a(qk_port.o)
 .bss           0x00000000        0x0 ../../../../../ports/arm-cortex/qk/gnu/dbg\libqk_cortex-m3.a(qk_port.o)
 .data          0x00000000        0x0 ../../../../../ports/arm-cortex/qk/gnu/dbg\libqf_cortex-m3.a(qa_fifo.o)
 .bss           0x00000000        0x0 ../../../../../ports/arm-cortex/qk/gnu/dbg\libqf_cortex-m3.a(qa_fifo.o)
 .data          0x00000000        0x0 ../../../../../ports/arm-cortex/qk/gnu/dbg\libqf_cortex-m3.a(qa_get_.o)
 .bss           0x00000000        0x0 ../../../../../ports/arm-cortex/qk/gnu/dbg\libqf_cortex-m3.a(qa_get_.o)
 .data          0x00000000        0x0 ../../../../../ports/arm-cortex/qk/gnu/dbg\libqf_cortex-m3.a(qa_sub.o)
 .bss           0x00000000        0x0 ../../../../../ports/arm-cortex/qk/gnu/dbg\libqf_cortex-m3.a(qa_sub.o)
 .data          0x00000000        0x0 ../../../../../ports/arm-cortex/qk/gnu/dbg\libqf_cortex-m3.a(qeq_init.o)
 .bss           0x00000000        0x0 ../../../../../ports/arm-cortex/qk/gnu/dbg\libqf_cortex-m3.a(qeq_init.o)
 .data          0x00000000        0x0 ../../../../../ports/arm-cortex/qk/gnu/dbg\libqf_cortex-m3.a(qf_act.o)
 .bss           0x00000000        0x0 ../../../../../ports/arm-cortex/qk/gnu/dbg\libqf_cortex-m3.a(qf_act.o)
 .data          0x00000000        0x0 ../../../../../ports/arm-cortex/qk/gnu/dbg\libqf_cortex-m3.a(qf_gc.o)
 .bss           0x00000000        0x0 ../../../../../ports/arm-cortex/qk/gnu/dbg\libqf_cortex-m3.a(qf_gc.o)
 .text          0x00000000        0x0 ../../../../../ports/arm-cortex/qk/gnu/dbg\libqf_cortex-m3.a(qf_log2.o)
 .data          0x00000000        0x0 ../../../../../ports/arm-cortex/qk/gnu/dbg\libqf_cortex-m3.a(qf_log2.o)
 .bss           0x00000000        0x0 ../../../../../ports/arm-cortex/qk/gnu/dbg\libqf_cortex-m3.a(qf_log2.o)
 .data          0x00000000        0x0 ../../../../../ports/arm-cortex/qk/gnu/dbg\libqf_cortex-m3.a(qf_new.o)
 .bss           0x00000000        0x0 ../../../../../ports/arm-cortex/qk/gnu/dbg\libqf_cortex-m3.a(qf_new.o)
 .data          0x00000000        0x0 ../../../../../ports/arm-cortex/qk/gnu/dbg\libqf_cortex-m3.a(qf_pool.o)
 .bss           0x00000000        0x0 ../../../../../ports/arm-cortex/qk/gnu/dbg\libqf_cortex-m3.a(qf_pool.o)
 .data          0x00000000        0x0 ../../../../../ports/arm-cortex/qk/gnu/dbg\libqf_cortex-m3.a(qf_psini.o)
 .bss           0x00000000        0x0 ../../../../../ports/arm-cortex/qk/gnu/dbg\libqf_cortex-m3.a(qf_psini.o)
 .data          0x00000000        0x0 ../../../../../ports/arm-cortex/qk/gnu/dbg\libqf_cortex-m3.a(qf_pspub.o)
 .bss           0x00000000        0x0 ../../../../../ports/arm-cortex/qk/gnu/dbg\libqf_cortex-m3.a(qf_pspub.o)
 .text          0x00000000        0x0 ../../../../../ports/arm-cortex/qk/gnu/dbg\libqf_cortex-m3.a(qf_pwr2.o)
 .data          0x00000000        0x0 ../../../../../ports/arm-cortex/qk/gnu/dbg\libqf_cortex-m3.a(qf_pwr2.o)
 .bss           0x00000000        0x0 ../../../../../ports/arm-cortex/qk/gnu/dbg\libqf_cortex-m3.a(qf_pwr2.o)
 .data          0x00000000        0x0 ../../../../../ports/arm-cortex/qk/gnu/dbg\libqf_cortex-m3.a(qf_tick.o)
 .data          0x00000000        0x0 ../../../../../ports/arm-cortex/qk/gnu/dbg\libqf_cortex-m3.a(qmp_get.o)
 .bss           0x00000000        0x0 ../../../../../ports/arm-cortex/qk/gnu/dbg\libqf_cortex-m3.a(qmp_get.o)
 .data          0x00000000        0x0 ../../../../../ports/arm-cortex/qk/gnu/dbg\libqf_cortex-m3.a(qmp_init.o)
 .bss           0x00000000        0x0 ../../../../../ports/arm-cortex/qk/gnu/dbg\libqf_cortex-m3.a(qmp_init.o)
 .data          0x00000000        0x0 ../../../../../ports/arm-cortex/qk/gnu/dbg\libqf_cortex-m3.a(qmp_put.o)
 .bss           0x00000000        0x0 ../../../../../ports/arm-cortex/qk/gnu/dbg\libqf_cortex-m3.a(qmp_put.o)
 .data          0x00000000        0x0 ../../../../../ports/arm-cortex/qk/gnu/dbg\libqf_cortex-m3.a(qte_ctor.o)
 .bss           0x00000000        0x0 ../../../../../ports/arm-cortex/qk/gnu/dbg\libqf_cortex-m3.a(qte_ctor.o)
 .data          0x00000000        0x0 ../../../../../ports/arm-cortex/qk/gnu/dbg\libqf_cortex-m3.a(qte_arm.o)
 .bss           0x00000000        0x0 ../../../../../ports/arm-cortex/qk/gnu/dbg\libqf_cortex-m3.a(qte_arm.o)
 .data          0x00000000        0x0 ../../../../../ports/arm-cortex/qk/gnu/dbg\libqep_cortex-m3.a(qhsm_ini.o)
 .bss           0x00000000        0x0 ../../../../../ports/arm-cortex/qk/gnu/dbg\libqep_cortex-m3.a(qhsm_ini.o)
 .data          0x00000000        0x0 ../../../../../ports/arm-cortex/qk/gnu/dbg\libqep_cortex-m3.a(qhsm_dis.o)
 .bss           0x00000000        0x0 ../../../../../ports/arm-cortex/qk/gnu/dbg\libqep_cortex-m3.a(qhsm_dis.o)
 .data          0x00000000        0x0 ../../../../../ports/arm-cortex/qk/gnu/dbg\libqep_cortex-m3.a(qhsm_top.o)
 .bss           0x00000000        0x0 ../../../../../ports/arm-cortex/qk/gnu/dbg\libqep_cortex-m3.a(qhsm_top.o)
 .text          0x00000000        0xc ../../../../../ports/arm-cortex/qk/gnu/dbg\libqep_cortex-m3.a(qep.o)
 .data          0x00000000        0x0 ../../../../../ports/arm-cortex/qk/gnu/dbg\libqep_cortex-m3.a(qep.o)
 .bss           0x00000000        0x0 ../../../../../ports/arm-cortex/qk/gnu/dbg\libqep_cortex-m3.a(qep.o)
 .text          0x00000000       0x10 c:/tools/devkitpro/devkitarm/bin/../lib/gcc/arm-eabi/4.4.2/../../../../arm-eabi/lib/thumb/thumb2\libc.a(lib_a-atexit.o)
 .data          0x00000000        0x0 c:/tools/devkitpro/devkitarm/bin/../lib/gcc/arm-eabi/4.4.2/../../../../arm-eabi/lib/thumb/thumb2\libc.a(lib_a-atexit.o)
 .bss           0x00000000        0x0 c:/tools/devkitpro/devkitarm/bin/../lib/gcc/arm-eabi/4.4.2/../../../../arm-eabi/lib/thumb/thumb2\libc.a(lib_a-atexit.o)
 .text          0x00000000       0x1c c:/tools/devkitpro/devkitarm/bin/../lib/gcc/arm-eabi/4.4.2/../../../../arm-eabi/lib/thumb/thumb2\libc.a(lib_a-exit.o)
 .data          0x00000000        0x0 c:/tools/devkitpro/devkitarm/bin/../lib/gcc/arm-eabi/4.4.2/../../../../arm-eabi/lib/thumb/thumb2\libc.a(lib_a-exit.o)
 .bss           0x00000000        0x0 c:/tools/devkitpro/devkitarm/bin/../lib/gcc/arm-eabi/4.4.2/../../../../arm-eabi/lib/thumb/thumb2\libc.a(lib_a-exit.o)
 .text          0x00000000        0x0 c:/tools/devkitpro/devkitarm/bin/../lib/gcc/arm-eabi/4.4.2/../../../../arm-eabi/lib/thumb/thumb2\libc.a(lib_a-impure.o)
 .data          0x00000000       0xf4 c:/tools/devkitpro/devkitarm/bin/../lib/gcc/arm-eabi/4.4.2/../../../../arm-eabi/lib/thumb/thumb2\libc.a(lib_a-impure.o)
 .bss           0x00000000        0x0 c:/tools/devkitpro/devkitarm/bin/../lib/gcc/arm-eabi/4.4.2/../../../../arm-eabi/lib/thumb/thumb2\libc.a(lib_a-impure.o)
 .rodata        0x00000000        0x4 c:/tools/devkitpro/devkitarm/bin/../lib/gcc/arm-eabi/4.4.2/../../../../arm-eabi/lib/thumb/thumb2\libc.a(lib_a-impure.o)
 .rodata.str1.4
                0x00000000        0x4 c:/tools/devkitpro/devkitarm/bin/../lib/gcc/arm-eabi/4.4.2/../../../../arm-eabi/lib/thumb/thumb2\libc.a(lib_a-impure.o)
 .data          0x00000000        0x0 c:/tools/devkitpro/devkitarm/bin/../lib/gcc/arm-eabi/4.4.2/../../../../arm-eabi/lib/thumb/thumb2\libc.a(lib_a-init.o)
 .bss           0x00000000        0x0 c:/tools/devkitpro/devkitarm/bin/../lib/gcc/arm-eabi/4.4.2/../../../../arm-eabi/lib/thumb/thumb2\libc.a(lib_a-init.o)
 .text          0x00000000       0xac c:/tools/devkitpro/devkitarm/bin/../lib/gcc/arm-eabi/4.4.2/../../../../arm-eabi/lib/thumb/thumb2\libc.a(lib_a-memset.o)
 .data          0x00000000        0x0 c:/tools/devkitpro/devkitarm/bin/../lib/gcc/arm-eabi/4.4.2/../../../../arm-eabi/lib/thumb/thumb2\libc.a(lib_a-memset.o)
 .bss           0x00000000        0x0 c:/tools/devkitpro/devkitarm/bin/../lib/gcc/arm-eabi/4.4.2/../../../../arm-eabi/lib/thumb/thumb2\libc.a(lib_a-memset.o)
 .text          0x00000000       0xd0 c:/tools/devkitpro/devkitarm/bin/../lib/gcc/arm-eabi/4.4.2/../../../../arm-eabi/lib/thumb/thumb2\libc.a(lib_a-__atexit.o)
 .data          0x00000000        0x0 c:/tools/devkitpro/devkitarm/bin/../lib/gcc/arm-eabi/4.4.2/../../../../arm-eabi/lib/thumb/thumb2\libc.a(lib_a-__atexit.o)
 .bss           0x00000000        0x0 c:/tools/devkitpro/devkitarm/bin/../lib/gcc/arm-eabi/4.4.2/../../../../arm-eabi/lib/thumb/thumb2\libc.a(lib_a-__atexit.o)
 .text          0x00000000      0x114 c:/tools/devkitpro/devkitarm/bin/../lib/gcc/arm-eabi/4.4.2/../../../../arm-eabi/lib/thumb/thumb2\libc.a(lib_a-__call_atexit.o)
 .data          0x00000000        0x0 c:/tools/devkitpro/devkitarm/bin/../lib/gcc/arm-eabi/4.4.2/../../../../arm-eabi/lib/thumb/thumb2\libc.a(lib_a-__call_atexit.o)
 .bss           0x00000000        0x0 c:/tools/devkitpro/devkitarm/bin/../lib/gcc/arm-eabi/4.4.2/../../../../arm-eabi/lib/thumb/thumb2\libc.a(lib_a-__call_atexit.o)
 .text          0x00000000      0x1d8 c:/tools/devkitpro/devkitarm/bin/../lib/gcc/arm-eabi/4.4.2/../../../../arm-eabi/lib/thumb/thumb2\libc.a(lib_a-findfp.o)
 .data          0x00000000        0x0 c:/tools/devkitpro/devkitarm/bin/../lib/gcc/arm-eabi/4.4.2/../../../../arm-eabi/lib/thumb/thumb2\libc.a(lib_a-findfp.o)
 .bss           0x00000000        0x0 c:/tools/devkitpro/devkitarm/bin/../lib/gcc/arm-eabi/4.4.2/../../../../arm-eabi/lib/thumb/thumb2\libc.a(lib_a-findfp.o)
 .rodata        0x00000000       0x60 c:/tools/devkitpro/devkitarm/bin/../lib/gcc/arm-eabi/4.4.2/../../../../arm-eabi/lib/thumb/thumb2\libc.a(lib_a-findfp.o)
 .text          0x00000000       0xa4 c:/tools/devkitpro/devkitarm/bin/../lib/gcc/arm-eabi/4.4.2/../../../../arm-eabi/lib/thumb/thumb2\libc.a(lib_a-fwalk.o)
 .data          0x00000000        0x0 c:/tools/devkitpro/devkitarm/bin/../lib/gcc/arm-eabi/4.4.2/../../../../arm-eabi/lib/thumb/thumb2\libc.a(lib_a-fwalk.o)
 .bss           0x00000000        0x0 c:/tools/devkitpro/devkitarm/bin/../lib/gcc/arm-eabi/4.4.2/../../../../arm-eabi/lib/thumb/thumb2\libc.a(lib_a-fwalk.o)
 .text          0x00000000      0x560 c:/tools/devkitpro/devkitarm/bin/../lib/gcc/arm-eabi/4.4.2/../../../../arm-eabi/lib/thumb/thumb2\libc.a(lib_a-mallocr.o)
 .data          0x00000000      0x410 c:/tools/devkitpro/devkitarm/bin/../lib/gcc/arm-eabi/4.4.2/../../../../arm-eabi/lib/thumb/thumb2\libc.a(lib_a-mallocr.o)
 .bss           0x00000000       0x34 c:/tools/devkitpro/devkitarm/bin/../lib/gcc/arm-eabi/4.4.2/../../../../arm-eabi/lib/thumb/thumb2\libc.a(lib_a-mallocr.o)
 .text          0x00000000        0x8 c:/tools/devkitpro/devkitarm/bin/../lib/gcc/arm-eabi/4.4.2/../../../../arm-eabi/lib/thumb/thumb2\libc.a(lib_a-mlock.o)
 .data          0x00000000        0x0 c:/tools/devkitpro/devkitarm/bin/../lib/gcc/arm-eabi/4.4.2/../../../../arm-eabi/lib/thumb/thumb2\libc.a(lib_a-mlock.o)
 .bss           0x00000000        0x0 c:/tools/devkitpro/devkitarm/bin/../lib/gcc/arm-eabi/4.4.2/../../../../arm-eabi/lib/thumb/thumb2\libc.a(lib_a-mlock.o)
 .text          0x00000000       0x94 c:/tools/devkitpro/devkitarm/bin/../lib/gcc/arm-eabi/4.4.2/../../../../arm-eabi/lib/thumb/thumb2\libc.a(lib_a-stdio.o)
 .data          0x00000000        0x0 c:/tools/devkitpro/devkitarm/bin/../lib/gcc/arm-eabi/4.4.2/../../../../arm-eabi/lib/thumb/thumb2\libc.a(lib_a-stdio.o)
 .bss           0x00000000        0x0 c:/tools/devkitpro/devkitarm/bin/../lib/gcc/arm-eabi/4.4.2/../../../../arm-eabi/lib/thumb/thumb2\libc.a(lib_a-stdio.o)
 .text          0x00000000       0xc8 c:/tools/devkitpro/devkitarm/bin/../lib/gcc/arm-eabi/4.4.2/../../../../arm-eabi/lib/thumb/thumb2\libc.a(lib_a-fclose.o)
 .data          0x00000000        0x0 c:/tools/devkitpro/devkitarm/bin/../lib/gcc/arm-eabi/4.4.2/../../../../arm-eabi/lib/thumb/thumb2\libc.a(lib_a-fclose.o)
 .bss           0x00000000        0x0 c:/tools/devkitpro/devkitarm/bin/../lib/gcc/arm-eabi/4.4.2/../../../../arm-eabi/lib/thumb/thumb2\libc.a(lib_a-fclose.o)
 .text          0x00000000      0x170 c:/tools/devkitpro/devkitarm/bin/../lib/gcc/arm-eabi/4.4.2/../../../../arm-eabi/lib/thumb/thumb2\libc.a(lib_a-fflush.o)
 .data          0x00000000        0x0 c:/tools/devkitpro/devkitarm/bin/../lib/gcc/arm-eabi/4.4.2/../../../../arm-eabi/lib/thumb/thumb2\libc.a(lib_a-fflush.o)
 .bss           0x00000000        0x0 c:/tools/devkitpro/devkitarm/bin/../lib/gcc/arm-eabi/4.4.2/../../../../arm-eabi/lib/thumb/thumb2\libc.a(lib_a-fflush.o)
 .text          0x00000000      0x25c c:/tools/devkitpro/devkitarm/bin/../lib/gcc/arm-eabi/4.4.2/../../../../arm-eabi/lib/thumb/thumb2\libc.a(lib_a-freer.o)
 .data          0x00000000        0x0 c:/tools/devkitpro/devkitarm/bin/../lib/gcc/arm-eabi/4.4.2/../../../../arm-eabi/lib/thumb/thumb2\libc.a(lib_a-freer.o)
 .bss           0x00000000        0x0 c:/tools/devkitpro/devkitarm/bin/../lib/gcc/arm-eabi/4.4.2/../../../../arm-eabi/lib/thumb/thumb2\libc.a(lib_a-freer.o)
 .text          0x00000000       0x44 c:/tools/devkitpro/devkitarm/bin/../lib/gcc/arm-eabi/4.4.2/../../../../arm-eabi/lib/thumb/thumb2\libsysbase.a(close.o)
 .data          0x00000000        0x0 c:/tools/devkitpro/devkitarm/bin/../lib/gcc/arm-eabi/4.4.2/../../../../arm-eabi/lib/thumb/thumb2\libsysbase.a(close.o)
 .bss           0x00000000        0x0 c:/tools/devkitpro/devkitarm/bin/../lib/gcc/arm-eabi/4.4.2/../../../../arm-eabi/lib/thumb/thumb2\libsysbase.a(close.o)
 .text          0x00000000       0x50 c:/tools/devkitpro/devkitarm/bin/../lib/gcc/arm-eabi/4.4.2/../../../../arm-eabi/lib/thumb/thumb2\libsysbase.a(lseek.o)
 .data          0x00000000        0x0 c:/tools/devkitpro/devkitarm/bin/../lib/gcc/arm-eabi/4.4.2/../../../../arm-eabi/lib/thumb/thumb2\libsysbase.a(lseek.o)
 .bss           0x00000000        0x0 c:/tools/devkitpro/devkitarm/bin/../lib/gcc/arm-eabi/4.4.2/../../../../arm-eabi/lib/thumb/thumb2\libsysbase.a(lseek.o)
 .text          0x00000000       0x50 c:/tools/devkitpro/devkitarm/bin/../lib/gcc/arm-eabi/4.4.2/../../../../arm-eabi/lib/thumb/thumb2\libsysbase.a(read.o)
 .data          0x00000000        0x0 c:/tools/devkitpro/devkitarm/bin/../lib/gcc/arm-eabi/4.4.2/../../../../arm-eabi/lib/thumb/thumb2\libsysbase.a(read.o)
 .bss           0x00000000        0x0 c:/tools/devkitpro/devkitarm/bin/../lib/gcc/arm-eabi/4.4.2/../../../../arm-eabi/lib/thumb/thumb2\libsysbase.a(read.o)
 .text          0x00000000       0x58 c:/tools/devkitpro/devkitarm/bin/../lib/gcc/arm-eabi/4.4.2/../../../../arm-eabi/lib/thumb/thumb2\libsysbase.a(sbrk.o)
 .data          0x00000000        0x0 c:/tools/devkitpro/devkitarm/bin/../lib/gcc/arm-eabi/4.4.2/../../../../arm-eabi/lib/thumb/thumb2\libsysbase.a(sbrk.o)
 .bss           0x00000000        0x4 c:/tools/devkitpro/devkitarm/bin/../lib/gcc/arm-eabi/4.4.2/../../../../arm-eabi/lib/thumb/thumb2\libsysbase.a(sbrk.o)
 .text          0x00000000       0x50 c:/tools/devkitpro/devkitarm/bin/../lib/gcc/arm-eabi/4.4.2/../../../../arm-eabi/lib/thumb/thumb2\libsysbase.a(write.o)
 .data          0x00000000        0x0 c:/tools/devkitpro/devkitarm/bin/../lib/gcc/arm-eabi/4.4.2/../../../../arm-eabi/lib/thumb/thumb2\libsysbase.a(write.o)
 .bss           0x00000000        0x0 c:/tools/devkitpro/devkitarm/bin/../lib/gcc/arm-eabi/4.4.2/../../../../arm-eabi/lib/thumb/thumb2\libsysbase.a(write.o)
 .text          0x00000000       0x10 c:/tools/devkitpro/devkitarm/bin/../lib/gcc/arm-eabi/4.4.2/../../../../arm-eabi/lib/thumb/thumb2\libsysbase.a(_exit.o)
 .data          0x00000000        0x0 c:/tools/devkitpro/devkitarm/bin/../lib/gcc/arm-eabi/4.4.2/../../../../arm-eabi/lib/thumb/thumb2\libsysbase.a(_exit.o)
 .bss           0x00000000        0x0 c:/tools/devkitpro/devkitarm/bin/../lib/gcc/arm-eabi/4.4.2/../../../../arm-eabi/lib/thumb/thumb2\libsysbase.a(_exit.o)
 .text          0x00000000        0x0 c:/tools/devkitpro/devkitarm/bin/../lib/gcc/arm-eabi/4.4.2/../../../../arm-eabi/lib/thumb/thumb2\libsysbase.a(malloc_vars.o)
 .data          0x00000000        0x0 c:/tools/devkitpro/devkitarm/bin/../lib/gcc/arm-eabi/4.4.2/../../../../arm-eabi/lib/thumb/thumb2\libsysbase.a(malloc_vars.o)
 .bss           0x00000000        0x8 c:/tools/devkitpro/devkitarm/bin/../lib/gcc/arm-eabi/4.4.2/../../../../arm-eabi/lib/thumb/thumb2\libsysbase.a(malloc_vars.o)
 .text          0x00000000        0x0 c:/tools/devkitpro/devkitarm/bin/../lib/gcc/arm-eabi/4.4.2/../../../../arm-eabi/lib/thumb/thumb2\libsysbase.a(syscall_support.o)
 .data          0x00000000        0x0 c:/tools/devkitpro/devkitarm/bin/../lib/gcc/arm-eabi/4.4.2/../../../../arm-eabi/lib/thumb/thumb2\libsysbase.a(syscall_support.o)
 .bss           0x00000000        0x8 c:/tools/devkitpro/devkitarm/bin/../lib/gcc/arm-eabi/4.4.2/../../../../arm-eabi/lib/thumb/thumb2\libsysbase.a(syscall_support.o)
 .text          0x00000000       0x70 c:/tools/devkitpro/devkitarm/bin/../lib/gcc/arm-eabi/4.4.2/../../../../arm-eabi/lib/thumb/thumb2\libsysbase.a(handle_manager.o)
 .data          0x00000000        0x0 c:/tools/devkitpro/devkitarm/bin/../lib/gcc/arm-eabi/4.4.2/../../../../arm-eabi/lib/thumb/thumb2\libsysbase.a(handle_manager.o)
 .bss           0x00000000     0x1000 c:/tools/devkitpro/devkitarm/bin/../lib/gcc/arm-eabi/4.4.2/../../../../arm-eabi/lib/thumb/thumb2\libsysbase.a(handle_manager.o)
 .text          0x00000000      0x11c c:/tools/devkitpro/devkitarm/bin/../lib/gcc/arm-eabi/4.4.2/../../../../arm-eabi/lib/thumb/thumb2\libsysbase.a(iosupport.o)
 .data          0x00000000       0x44 c:/tools/devkitpro/devkitarm/bin/../lib/gcc/arm-eabi/4.4.2/../../../../arm-eabi/lib/thumb/thumb2\libsysbase.a(iosupport.o)
 .bss           0x00000000        0x0 c:/tools/devkitpro/devkitarm/bin/../lib/gcc/arm-eabi/4.4.2/../../../../arm-eabi/lib/thumb/thumb2\libsysbase.a(iosupport.o)
 .rodata        0x00000000       0x5c c:/tools/devkitpro/devkitarm/bin/../lib/gcc/arm-eabi/4.4.2/../../../../arm-eabi/lib/thumb/thumb2\libsysbase.a(iosupport.o)
 .rodata.str1.4
                0x00000000        0x8 c:/tools/devkitpro/devkitarm/bin/../lib/gcc/arm-eabi/4.4.2/../../../../arm-eabi/lib/thumb/thumb2\libsysbase.a(iosupport.o)
 .text          0x00000000       0xa8 c:/tools/devkitpro/devkitarm/bin/../lib/gcc/arm-eabi/4.4.2/../../../../arm-eabi/lib/thumb/thumb2\libc.a(lib_a-strchr.o)
 .data          0x00000000        0x0 c:/tools/devkitpro/devkitarm/bin/../lib/gcc/arm-eabi/4.4.2/../../../../arm-eabi/lib/thumb/thumb2\libc.a(lib_a-strchr.o)
 .bss           0x00000000        0x0 c:/tools/devkitpro/devkitarm/bin/../lib/gcc/arm-eabi/4.4.2/../../../../arm-eabi/lib/thumb/thumb2\libc.a(lib_a-strchr.o)
 .text          0x00000000       0x54 c:/tools/devkitpro/devkitarm/bin/../lib/gcc/arm-eabi/4.4.2/../../../../arm-eabi/lib/thumb/thumb2\libc.a(lib_a-strcmp.o)
 .data          0x00000000        0x0 c:/tools/devkitpro/devkitarm/bin/../lib/gcc/arm-eabi/4.4.2/../../../../arm-eabi/lib/thumb/thumb2\libc.a(lib_a-strcmp.o)
 .bss           0x00000000        0x0 c:/tools/devkitpro/devkitarm/bin/../lib/gcc/arm-eabi/4.4.2/../../../../arm-eabi/lib/thumb/thumb2\libc.a(lib_a-strcmp.o)
 .text          0x00000000       0x54 c:/tools/devkitpro/devkitarm/bin/../lib/gcc/arm-eabi/4.4.2/../../../../arm-eabi/lib/thumb/thumb2\libc.a(lib_a-strlen.o)
 .data          0x00000000        0x0 c:/tools/devkitpro/devkitarm/bin/../lib/gcc/arm-eabi/4.4.2/../../../../arm-eabi/lib/thumb/thumb2\libc.a(lib_a-strlen.o)
 .bss           0x00000000        0x0 c:/tools/devkitpro/devkitarm/bin/../lib/gcc/arm-eabi/4.4.2/../../../../arm-eabi/lib/thumb/thumb2\libc.a(lib_a-strlen.o)
 .text          0x00000000       0x98 c:/tools/devkitpro/devkitarm/bin/../lib/gcc/arm-eabi/4.4.2/../../../../arm-eabi/lib/thumb/thumb2\libc.a(lib_a-strncmp.o)
 .data          0x00000000        0x0 c:/tools/devkitpro/devkitarm/bin/../lib/gcc/arm-eabi/4.4.2/../../../../arm-eabi/lib/thumb/thumb2\libc.a(lib_a-strncmp.o)
 .bss           0x00000000        0x0 c:/tools/devkitpro/devkitarm/bin/../lib/gcc/arm-eabi/4.4.2/../../../../arm-eabi/lib/thumb/thumb2\libc.a(lib_a-strncmp.o)
 .text          0x00000000        0x0 c:/tools/devkitpro/devkitarm/bin/../lib/gcc/arm-eabi/4.4.2/thumb/thumb2/crtend.o
 .data          0x00000000        0x0 c:/tools/devkitpro/devkitarm/bin/../lib/gcc/arm-eabi/4.4.2/thumb/thumb2/crtend.o
 .bss           0x00000000        0x0 c:/tools/devkitpro/devkitarm/bin/../lib/gcc/arm-eabi/4.4.2/thumb/thumb2/crtend.o
 .eh_frame      0x00000000        0x4 c:/tools/devkitpro/devkitarm/bin/../lib/gcc/arm-eabi/4.4.2/thumb/thumb2/crtend.o
 .jcr           0x00000000        0x4 c:/tools/devkitpro/devkitarm/bin/../lib/gcc/arm-eabi/4.4.2/thumb/thumb2/crtend.o
 .text          0x00000000        0x0 c:/tools/devkitpro/devkitarm/bin/../lib/gcc/arm-eabi/4.4.2/thumb/thumb2/crtn.o
 .data          0x00000000        0x0 c:/tools/devkitpro/devkitarm/bin/../lib/gcc/arm-eabi/4.4.2/thumb/thumb2/crtn.o
 .bss           0x00000000        0x0 c:/tools/devkitpro/devkitarm/bin/../lib/gcc/arm-eabi/4.4.2/thumb/thumb2/crtn.o

Memory Configuration

Name             Origin             Length             Attributes
ROM              0x08000000         0x00040000         xr
RAM              0x20000000         0x00010000         xrw
*default*        0x00000000         0xffffffff

Linker script and memory map

LOAD c:/tools/devkitpro/devkitarm/bin/../lib/gcc/arm-eabi/4.4.2/thumb/thumb2/crti.o
LOAD c:/tools/devkitpro/devkitarm/bin/../lib/gcc/arm-eabi/4.4.2/thumb/thumb2/crtbegin.o
LOAD c:/tools/devkitpro/devkitarm/bin/../lib/gcc/arm-eabi/4.4.2/../../../../arm-eabi/lib/thumb/thumb2/crt0.o
LOAD dbg/bsp.o
LOAD dbg/main.o
LOAD dbg/no_heap.o
LOAD dbg/philo.o
LOAD dbg/table.o
LOAD dbg/startup_stm32f10x_cl.o
LOAD dbg/core_cm3.o
LOAD dbg/system_stm32f10x.o
LOAD dbg/stm32_eval.o
LOAD dbg/stm3210c_eval_lcd.o
LOAD dbg/stm3210c_eval_ioe.o
LOAD dbg/misc.o
LOAD dbg/stm32f10x_adc.o
LOAD dbg/stm32f10x_bkp.o
LOAD dbg/stm32f10x_can.o
LOAD dbg/stm32f10x_crc.o
LOAD dbg/stm32f10x_dac.o
LOAD dbg/stm32f10x_dbgmcu.o
LOAD dbg/stm32f10x_dma.o
LOAD dbg/stm32f10x_exti.o
LOAD dbg/stm32f10x_flash.o
LOAD dbg/stm32f10x_fsmc.o
LOAD dbg/stm32f10x_gpio.o
LOAD dbg/stm32f10x_i2c.o
LOAD dbg/stm32f10x_iwdg.o
LOAD dbg/stm32f10x_pwr.o
LOAD dbg/stm32f10x_rcc.o
LOAD dbg/stm32f10x_rtc.o
LOAD dbg/stm32f10x_sdio.o
LOAD dbg/stm32f10x_spi.o
LOAD dbg/stm32f10x_tim.o
LOAD dbg/stm32f10x_usart.o
LOAD dbg/stm32f10x_wwdg.o
LOAD ../../../../../ports/arm-cortex/qk/gnu/dbg\libqk_cortex-m3.a
LOAD ../../../../../ports/arm-cortex/qk/gnu/dbg\libqf_cortex-m3.a
LOAD ../../../../../ports/arm-cortex/qk/gnu/dbg\libqep_cortex-m3.a
START GROUP
LOAD c:/tools/devkitpro/devkitarm/bin/../lib/gcc/arm-eabi/4.4.2/thumb/thumb2\libgcc.a
LOAD c:/tools/devkitpro/devkitarm/bin/../lib/gcc/arm-eabi/4.4.2/../../../../arm-eabi/lib/thumb/thumb2\libc.a
LOAD c:/tools/devkitpro/devkitarm/bin/../lib/gcc/arm-eabi/4.4.2/../../../../arm-eabi/lib/thumb/thumb2\libsysbase.a
END GROUP
LOAD c:/tools/devkitpro/devkitarm/bin/../lib/gcc/arm-eabi/4.4.2/thumb/thumb2/crtend.o
LOAD c:/tools/devkitpro/devkitarm/bin/../lib/gcc/arm-eabi/4.4.2/thumb/thumb2/crtn.o
                0x00000400                STACK_SIZE = 0x400
                0x00000000                HEAP_SIZE = 0x0

.isr_vector     0x08000000      0x154
 *(.isr_vector)
 .isr_vector    0x08000000      0x154 dbg/startup_stm32f10x_cl.o
                0x08000000                g_pfnVectors
                0x08000154                . = ALIGN (0x4)

.eh_frame       0x08000154        0x0
 .eh_frame      0x08000154        0x0 c:/tools/devkitpro/devkitarm/bin/../lib/gcc/arm-eabi/4.4.2/thumb/thumb2/crtbegin.o

.text           0x08000154     0x5028
                0x08000154                . = ALIGN (0x4)
 *(.text)
 .text          0x08000154       0x54 c:/tools/devkitpro/devkitarm/bin/../lib/gcc/arm-eabi/4.4.2/thumb/thumb2/crtbegin.o
 .text          0x080001a8      0x2b8 dbg/bsp.o
                0x080001a8                QF_onCleanup
                0x080001ac                Q_onAssert
                0x080001b0                assert_failed
                0x080001b8                BSP_busyDelay
                0x080001d0                BSP_displyPhilStat
                0x080001f0                QK_onIdle
                0x08000208                QF_onStartup
                0x0800029c                BSP_init
                0x080003a8                EXTI0_IRQHandler
                0x08000418                SysTick_Handler
 .text          0x08000460       0xa8 dbg/main.o
                0x08000460                main
 .text          0x08000508      0x2b0 dbg/philo.o
                0x08000508                Philo_ctor
 .text          0x080007b8      0x27c dbg/table.o
                0x080007b8                Table_ctor
 .text          0x08000a34       0xb0 dbg/startup_stm32f10x_cl.o
                0x08000a34                EXTI2_IRQHandler
                0x08000a34                TIM8_TRG_COM_IRQHandler
                0x08000a34                TIM8_CC_IRQHandler
                0x08000a34                DebugMon_Handler
                0x08000a34                TIM1_CC_IRQHandler
                0x08000a34                TIM6_IRQHandler
                0x08000a34                PVD_IRQHandler
                0x08000a34                SDIO_IRQHandler
                0x08000a34                NMI_Handler
                0x08000a34                CAN2_RX1_IRQHandler
                0x08000a34                EXTI3_IRQHandler
                0x08000a34                I2C2_EV_IRQHandler
                0x08000a34                UsageFault_Handler
                0x08000a34                CAN2_SCE_IRQHandler
                0x08000a34                ADC1_2_IRQHandler
                0x08000a34                SPI1_IRQHandler
                0x08000a34                TAMPER_IRQHandler
                0x08000a34                CAN2_RX0_IRQHandler
                0x08000a34                TIM8_UP_IRQHandler
                0x08000a34                DMA2_Channel2_IRQHandler
                0x08000a34                DMA1_Channel4_IRQHandler
                0x08000a34                USART3_IRQHandler
                0x08000a34                RTC_IRQHandler
                0x08000a34                DMA1_Channel7_IRQHandler
                0x08000a34                USBWakeUp_IRQHandler
                0x08000a34                CAN1_RX1_IRQHandler
                0x08000a34                UART5_IRQHandler
                0x08000a34                ADC3_IRQHandler
                0x08000a34                TIM4_IRQHandler
                0x08000a34                DMA2_Channel1_IRQHandler
                0x08000a34                I2C1_EV_IRQHandler
                0x08000a34                DMA1_Channel6_IRQHandler
                0x08000a34                UART4_IRQHandler
                0x08000a34                TIM3_IRQHandler
                0x08000a34                RCC_IRQHandler
                0x08000a34                TIM1_TRG_COM_IRQHandler
                0x08000a34                DMA1_Channel1_IRQHandler
                0x08000a34                EXTI15_10_IRQHandler
                0x08000a34                TIM7_IRQHandler
                0x08000a34                CAN2_TX_IRQHandler
                0x08000a34                TIM5_IRQHandler
                0x08000a34                EXTI9_5_IRQHandler
                0x08000a34                ETH_WKUP_IRQHandler
                0x08000a34                SPI2_IRQHandler
                0x08000a34                MemManage_Handler
                0x08000a34                DMA2_Channel5_IRQHandler
                0x08000a34                DMA1_Channel5_IRQHandler
                0x08000a34                EXTI4_IRQHandler
                0x08000a34                USB_LP_CAN1_RX0_IRQHandler
                0x08000a34                USB_HP_CAN1_TX_IRQHandler
                0x08000a34                DMA1_Channel3_IRQHandler
                0x08000a34                FSMC_IRQHandler
                0x08000a34                ETH_IRQHandler
                0x08000a34                TIM1_UP_IRQHandler
                0x08000a34                WWDG_IRQHandler
                0x08000a34                TIM2_IRQHandler
                0x08000a34                TIM1_BRK_IRQHandler
                0x08000a34                EXTI1_IRQHandler
                0x08000a34                RTCAlarm_IRQHandler
                0x08000a34                DMA2_Channel4_5_IRQHandler
                0x08000a34                USART2_IRQHandler
                0x08000a34                I2C2_ER_IRQHandler
                0x08000a34                DMA1_Channel2_IRQHandler
                0x08000a34                TIM8_BRK_IRQHandler
                0x08000a34                CAN1_SCE_IRQHandler
                0x08000a34                FLASH_IRQHandler
                0x08000a34                BusFault_Handler
                0x08000a34                USART1_IRQHandler
                0x08000a34                Spurious_Handler
                0x08000a34                OTG_FS_IRQHandler
                0x08000a34                SPI3_IRQHandler
                0x08000a34                I2C1_ER_IRQHandler
                0x08000a34                DMA2_Channel3_IRQHandler
                0x08000a50                Reset_Handler
 .text          0x08000ae4      0x170 dbg/system_stm32f10x.o
                0x08000ae4                SystemInit
 .text          0x08000c54      0x248 dbg/stm32_eval.o
                0x08000c54                STM_EVAL_LEDOn
                0x08000c70                STM_EVAL_LEDOff
                0x08000c8c                STM_EVAL_LEDToggle
                0x08000cb0                STM_EVAL_LEDInit
                0x08000cfc                STM_EVAL_COMInit
                0x08000da8                STM_EVAL_PBGetState
                0x08000dd0                STM_EVAL_PBInit
 .text          0x08000e9c      0xc50 dbg/stm3210c_eval_lcd.o
                0x08000e9c                LCD_SetTextColor
                0x08000eb8                LCD_SetBackColor
                0x08000f04                LCD_CtrlLinesConfig
                0x08000f40                LCD_SPIConfig
                0x08000fe8                LCD_CtrlLinesWrite
                0x08000ff0                LCD_WriteRAM
                0x08001044                LCD_nCS_StartByte
                0x08001084                LCD_WriteRegIndex
                0x080010f4                LCD_WriteRAM_Prepare
                0x08001108                LCD_WriteRAMWord
                0x0800112c                LCD_WriteReg
                0x080011a0                LCD_DisplayOff
                0x080011b0                LCD_DisplayOn
                0x080011c0                LCD_PowerOn
                0x0800125c                LCD_SetCursor
                0x08001278                LCD_DrawCircle
                0x080013a4                LCD_DrawMonoPict
                0x08001424                LCD_DrawLine
                0x080014b0                LCD_DrawRect
                0x08001500                LCD_DrawChar
                0x08001584                LCD_DisplayChar
                0x080015ac                LCD_DisplayString
                0x08001600                LCD_ClearLine
                0x08001614                LCD_Clear
                0x08001654                LCD_SetDisplayWindow
                0x080016c4                LCD_WindowModeDisable
                0x080016e8                LCD_Setup
                0x080019a4                STM3210C_LCD_Init
                0x080019ac                LCD_ReadReg
 .text          0x08001aec      0x104 dbg/misc.o
                0x08001aec                NVIC_PriorityGroupConfig
                0x08001b00                NVIC_Init
                0x08001b84                NVIC_SetVectorTable
                0x08001b9c                NVIC_SystemLPConfig
                0x08001bc4                SysTick_CLKSourceConfig
 .text          0x08001bf0      0x134 dbg/stm32f10x_exti.o
                0x08001bf0                EXTI_DeInit
                0x08001c10                EXTI_Init
                0x08001cb0                EXTI_StructInit
                0x08001cc4                EXTI_GenerateSWInterrupt
                0x08001cd8                EXTI_GetFlagStatus
                0x08001cec                EXTI_ClearFlag
                0x08001cf8                EXTI_GetITStatus
                0x08001d18                EXTI_ClearITPendingBit
 .text          0x08001d24      0x34c dbg/stm32f10x_gpio.o
                0x08001d24                GPIO_Init
                0x08001dec                GPIO_StructInit
                0x08001e00                GPIO_ReadInputDataBit
                0x08001e0c                GPIO_ReadInputData
                0x08001e14                GPIO_ReadOutputDataBit
                0x08001e20                GPIO_ReadOutputData
                0x08001e28                GPIO_SetBits
                0x08001e2c                GPIO_ResetBits
                0x08001e30                GPIO_WriteBit
                0x08001e3c                GPIO_Write
                0x08001e40                GPIO_PinLockConfig
                0x08001e50                GPIO_EventOutputConfig
                0x08001e74                GPIO_EventOutputCmd
                0x08001e80                GPIO_PinRemapConfig
                0x08001ef8                GPIO_EXTILineConfig
                0x08001f3c                GPIO_ETH_MediaInterfaceConfig
                0x08001f48                GPIO_AFIODeInit
                0x08001f64                GPIO_DeInit
 .text          0x08002070      0x5a4 dbg/stm32f10x_rcc.o
                0x08002070                RCC_DeInit
                0x080020c4                RCC_HSEConfig
                0x08002110                RCC_AdjustHSICalibrationValue
                0x08002128                RCC_HSICmd
                0x08002134                RCC_PLLConfig
                0x08002150                RCC_PLLCmd
                0x0800215c                RCC_PREDIV1Config
                0x0800217c                RCC_PREDIV2Config
                0x08002194                RCC_PLL2Config
                0x080021ac                RCC_PLL2Cmd
                0x080021b8                RCC_PLL3Config
                0x080021d0                RCC_PLL3Cmd
                0x080021dc                RCC_SYSCLKConfig
                0x080021f4                RCC_GetSYSCLKSource
                0x08002204                RCC_HCLKConfig
                0x0800221c                RCC_PCLK1Config
                0x08002234                RCC_PCLK2Config
                0x0800224c                RCC_ITConfig
                0x08002274                RCC_OTGFSCLKConfig
                0x08002280                RCC_ADCCLKConfig
                0x08002298                RCC_I2S2CLKConfig
                0x080022a4                RCC_I2S3CLKConfig
                0x080022b0                RCC_LSEConfig
                0x080022ec                RCC_LSICmd
                0x080022f8                RCC_RTCCLKConfig
                0x0800230c                RCC_RTCCLKCmd
                0x08002318                RCC_GetClocksFreq
                0x0800244c                RCC_AHBPeriphClockCmd
                0x08002474                RCC_APB2PeriphClockCmd
                0x0800249c                RCC_APB1PeriphClockCmd
                0x080024c4                RCC_AHBPeriphResetCmd
                0x080024ec                RCC_APB2PeriphResetCmd
                0x08002514                RCC_APB1PeriphResetCmd
                0x0800253c                RCC_BackupResetCmd
                0x08002548                RCC_ClockSecuritySystemCmd
                0x08002554                RCC_MCOConfig
                0x08002560                RCC_GetFlagStatus
                0x080025a4                RCC_WaitForHSEStartUp
                0x080025e0                RCC_ClearFlag
                0x080025f4                RCC_GetITStatus
                0x08002608                RCC_ClearITPendingBit
 .text          0x08002614      0x410 dbg/stm32f10x_spi.o
                0x08002614                SPI_Init
                0x08002674                SPI_StructInit
                0x08002690                I2S_StructInit
                0x080026a8                SPI_Cmd
                0x080026c8                I2S_Cmd
                0x080026e8                SPI_I2S_ITConfig
                0x08002710                SPI_I2S_DMACmd
                0x0800272c                SPI_I2S_SendData
                0x08002730                SPI_I2S_ReceiveData
                0x08002738                SPI_NSSInternalSoftwareConfig
                0x0800275c                SPI_SSOutputCmd
                0x0800277c                SPI_DataSizeConfig
                0x08002798                SPI_TransmitCRC
                0x080027a4                SPI_CalculateCRC
                0x080027c4                SPI_GetCRC
                0x080027d4                SPI_GetCRCPolynomial
                0x080027dc                SPI_BiDirectionalLineConfig
                0x08002800                SPI_I2S_GetFlagStatus
                0x0800280c                SPI_I2S_ClearFlag
                0x08002818                SPI_I2S_GetITStatus
                0x08002850                SPI_I2S_ClearITPendingBit
                0x08002868                I2S_Init
                0x080029b0                SPI_I2S_DeInit
 .text          0x08002a24      0x44c dbg/stm32f10x_usart.o
                0x08002a24                USART_StructInit
                0x08002a40                USART_ClockInit
                0x08002a70                USART_ClockStructInit
                0x08002a80                USART_Cmd
                0x08002aa0                USART_ITConfig
                0x08002ad8                USART_DMACmd
                0x08002af4                USART_SetAddress
                0x08002b10                USART_WakeUpConfig
                0x08002b2c                USART_ReceiverWakeUpCmd
                0x08002b4c                USART_LINBreakDetectLengthConfig
                0x08002b68                USART_LINCmd
                0x08002b88                USART_SendData
                0x08002b94                USART_ReceiveData
                0x08002ba0                USART_SendBreak
                0x08002bac                USART_SetGuardTime
                0x08002bc0                USART_SetPrescaler
                0x08002bd4                USART_SmartCardCmd
                0x08002bf4                USART_SmartCardNACKCmd
                0x08002c14                USART_HalfDuplexCmd
                0x08002c34                USART_IrDAConfig
                0x08002c50                USART_IrDACmd
                0x08002c70                USART_GetFlagStatus
                0x08002c7c                USART_ClearFlag
                0x08002c88                USART_GetITStatus
                0x08002ce0                USART_ClearITPendingBit
                0x08002cf8                USART_Init
                0x08002db0                USART_DeInit
 .text          0x08002e70       0xac ../../../../../ports/arm-cortex/qk/gnu/dbg\libqk_cortex-m3.a(qk.o)
                0x08002e70                QK_getVersion
                0x08002e7c                QActive_stop
                0x08002e84                QActive_start
                0x08002eec                QF_run
                0x08002f0c                QF_stop
                0x08002f14                QF_init
 .text          0x08002f1c      0x10c ../../../../../ports/arm-cortex/qk/gnu/dbg\libqk_cortex-m3.a(qk_sched.o)
                0x08002f1c                QK_schedule_
 .text          0x08003028       0xa8 ../../../../../ports/arm-cortex/qk/gnu/dbg\libqf_cortex-m3.a(qa_fifo.o)
                0x08003028                QActive_postFIFO
 .text          0x080030d0       0xe4 ../../../../../ports/arm-cortex/qk/gnu/dbg\libqf_cortex-m3.a(qa_get_.o)
                0x080030d0                QF_getQueueMargin
                0x0800310c                QActive_get_
 .text          0x080031b4       0x7c ../../../../../ports/arm-cortex/qk/gnu/dbg\libqf_cortex-m3.a(qa_sub.o)
                0x080031b4                QActive_subscribe
 .text          0x08003230       0x14 ../../../../../ports/arm-cortex/qk/gnu/dbg\libqf_cortex-m3.a(qeq_init.o)
                0x08003230                QEQueue_init
 .text          0x08003244       0x90 ../../../../../ports/arm-cortex/qk/gnu/dbg\libqf_cortex-m3.a(qf_act.o)
                0x08003244                QF_getVersion
                0x08003250                QF_remove_
                0x08003294                QF_add_
 .text          0x080032d4       0x60 ../../../../../ports/arm-cortex/qk/gnu/dbg\libqf_cortex-m3.a(qf_gc.o)
                0x080032d4                QF_gc
 .text          0x08003334       0x88 ../../../../../ports/arm-cortex/qk/gnu/dbg\libqf_cortex-m3.a(qf_new.o)
                0x08003334                QF_new_
 .text          0x080033bc       0x90 ../../../../../ports/arm-cortex/qk/gnu/dbg\libqf_cortex-m3.a(qf_pool.o)
                0x080033bc                QF_poolInit
 .text          0x0800344c       0x18 ../../../../../ports/arm-cortex/qk/gnu/dbg\libqf_cortex-m3.a(qf_psini.o)
                0x0800344c                QF_psInit
 .text          0x08003464       0xc8 ../../../../../ports/arm-cortex/qk/gnu/dbg\libqf_cortex-m3.a(qf_pspub.o)
                0x08003464                QF_publish
 .text          0x0800352c       0x70 ../../../../../ports/arm-cortex/qk/gnu/dbg\libqf_cortex-m3.a(qf_tick.o)
                0x0800352c                QF_tick
 .text          0x0800359c       0x64 ../../../../../ports/arm-cortex/qk/gnu/dbg\libqf_cortex-m3.a(qmp_get.o)
                0x0800359c                QMPool_get
                0x080035c0                QF_getPoolMargin
 .text          0x08003600       0xd8 ../../../../../ports/arm-cortex/qk/gnu/dbg\libqf_cortex-m3.a(qmp_init.o)
                0x08003600                QMPool_init
 .text          0x080036d8       0x40 ../../../../../ports/arm-cortex/qk/gnu/dbg\libqf_cortex-m3.a(qmp_put.o)
                0x080036d8                QMPool_put
 .text          0x08003718       0x30 ../../../../../ports/arm-cortex/qk/gnu/dbg\libqf_cortex-m3.a(qte_ctor.o)
                0x08003718                QTimeEvt_ctor
 .text          0x08003748       0x5c ../../../../../ports/arm-cortex/qk/gnu/dbg\libqf_cortex-m3.a(qte_arm.o)
                0x08003748                QTimeEvt_arm_
 .text          0x080037a4       0xd8 ../../../../../ports/arm-cortex/qk/gnu/dbg\libqep_cortex-m3.a(qhsm_ini.o)
                0x080037a4                QHsm_init
 .text          0x0800387c      0x25c ../../../../../ports/arm-cortex/qk/gnu/dbg\libqep_cortex-m3.a(qhsm_dis.o)
                0x0800387c                QHsm_dispatch
 .text          0x08003ad8        0x8 ../../../../../ports/arm-cortex/qk/gnu/dbg\libqep_cortex-m3.a(qhsm_top.o)
                0x08003ad8                QHsm_top
 .text          0x08003ae0       0x70 c:/tools/devkitpro/devkitarm/bin/../lib/gcc/arm-eabi/4.4.2/../../../../arm-eabi/lib/thumb/thumb2\libc.a(lib_a-init.o)
                0x08003ae0                __libc_fini_array
                0x08003b08                __libc_init_array
 *(.text*)
 .text.QK_init  0x08003b50       0x24 ../../../../../ports/arm-cortex/qk/gnu/dbg\libqk_cortex-m3.a(qk_port.o)
                0x08003b50                QK_init
 .text.PendSV_Handler
                0x08003b74       0x2c ../../../../../ports/arm-cortex/qk/gnu/dbg\libqk_cortex-m3.a(qk_port.o)
                0x08003b74                PendSV_Handler
 .text.SVC_Handler
                0x08003ba0        0x4 ../../../../../ports/arm-cortex/qk/gnu/dbg\libqk_cortex-m3.a(qk_port.o)
                0x08003ba0                SVC_Handler
 *(.rodata)
 .rodata        0x08003ba4       0x1c dbg/philo.o
                0x08003bac                AO_Philo
 .rodata        0x08003bc0        0xc dbg/table.o
                0x08003bc8                AO_Table
 .rodata        0x08003bcc       0x14 dbg/system_stm32f10x.o
                0x08003bcc                SystemFrequency
                0x08003bd0                SystemFrequency_SysClk
                0x08003bd4                SystemFrequency_AHBClk
                0x08003bd8                SystemFrequency_APB1Clk
                0x08003bdc                SystemFrequency_APB2Clk
 .rodata        0x08003be0       0x5c dbg/stm32_eval.o
                0x08003be0                GPIO_PIN
                0x08003be8                GPIO_CLK
                0x08003bf8                COM_POR_CLK
                0x08003bfc                COM_USART_CLK
                0x08003c00                COM_TX_PIN
                0x08003c04                COM_RX_PIN
                0x08003c08                BUTTON_PIN
                0x08003c10                BUTTON_CLK
                0x08003c1c                BUTTON_PORT_SOURCE
                0x08003c24                BUTTON_PIN_SOURCE
                0x08003c2c                BUTTON_EXTI_LINE
                0x08003c34                BUTTON_IRQn
 .rodata        0x08003c3c     0x11d0 dbg/stm3210c_eval_lcd.o
                0x08003c3c                ASCII_Table
 .rodata        0x08004e0c        0xc ../../../../../ports/arm-cortex/qk/gnu/dbg\libqk_cortex-m3.a(qk.o)
 .rodata        0x08004e18        0xc ../../../../../ports/arm-cortex/qk/gnu/dbg\libqk_cortex-m3.a(qk_sched.o)
 .rodata        0x08004e24        0x8 ../../../../../ports/arm-cortex/qk/gnu/dbg\libqf_cortex-m3.a(qa_fifo.o)
 .rodata        0x08004e2c        0x8 ../../../../../ports/arm-cortex/qk/gnu/dbg\libqf_cortex-m3.a(qa_get_.o)
 .rodata        0x08004e34        0x8 ../../../../../ports/arm-cortex/qk/gnu/dbg\libqf_cortex-m3.a(qa_sub.o)
 .rodata        0x08004e3c       0x10 ../../../../../ports/arm-cortex/qk/gnu/dbg\libqf_cortex-m3.a(qf_act.o)
 .rodata        0x08004e4c        0x8 ../../../../../ports/arm-cortex/qk/gnu/dbg\libqf_cortex-m3.a(qf_gc.o)
 .rodata        0x08004e54      0x100 ../../../../../ports/arm-cortex/qk/gnu/dbg\libqf_cortex-m3.a(qf_log2.o)
                0x08004e54                QF_log2Lkup
 .rodata        0x08004f54        0x8 ../../../../../ports/arm-cortex/qk/gnu/dbg\libqf_cortex-m3.a(qf_new.o)
 .rodata        0x08004f5c        0x8 ../../../../../ports/arm-cortex/qk/gnu/dbg\libqf_cortex-m3.a(qf_pool.o)
 .rodata        0x08004f64        0xc ../../../../../ports/arm-cortex/qk/gnu/dbg\libqf_cortex-m3.a(qf_pspub.o)
 .rodata        0x08004f70       0xcc ../../../../../ports/arm-cortex/qk/gnu/dbg\libqf_cortex-m3.a(qf_pwr2.o)
                0x08004f70                QF_pwr2Lkup
                0x08004fb4                QF_invPwr2Lkup
                0x08004ff8                QF_div8Lkup
 .rodata        0x0800503c        0x8 ../../../../../ports/arm-cortex/qk/gnu/dbg\libqf_cortex-m3.a(qmp_get.o)
 .rodata        0x08005044        0xc ../../../../../ports/arm-cortex/qk/gnu/dbg\libqf_cortex-m3.a(qmp_init.o)
 .rodata        0x08005050        0x8 ../../../../../ports/arm-cortex/qk/gnu/dbg\libqf_cortex-m3.a(qmp_put.o)
 .rodata        0x08005058        0xc ../../../../../ports/arm-cortex/qk/gnu/dbg\libqf_cortex-m3.a(qte_ctor.o)
 .rodata        0x08005064        0x8 ../../../../../ports/arm-cortex/qk/gnu/dbg\libqf_cortex-m3.a(qte_arm.o)
 .rodata        0x0800506c        0xc ../../../../../ports/arm-cortex/qk/gnu/dbg\libqep_cortex-m3.a(qhsm_ini.o)
 .rodata        0x08005078        0xc ../../../../../ports/arm-cortex/qk/gnu/dbg\libqep_cortex-m3.a(qhsm_dis.o)
 .rodata        0x08005084       0x10 ../../../../../ports/arm-cortex/qk/gnu/dbg\libqep_cortex-m3.a(qep.o)
                0x0800508c                QEP_reservedEvt_
 *(.rodata*)
 .rodata.str1.4
                0x08005094       0x7a dbg/bsp.o
                                 0x7c (size before relaxing)
 *fill*         0x0800510e        0x2 00
 .rodata.str1.4
                0x08005110       0x21 dbg/table.o
                                 0x24 (size before relaxing)
 *fill*         0x08005131        0x3 00
 .rodata.str1.4
                0x08005134       0x15 dbg/startup_stm32f10x_cl.o
                                 0x18 (size before relaxing)
 *fill*         0x08005149        0x3 00
 .rodata.str1.4
                0x0800514c       0x18 dbg/stm3210c_eval_lcd.o
 *(.init)
 .init          0x08005164        0x4 c:/tools/devkitpro/devkitarm/bin/../lib/gcc/arm-eabi/4.4.2/thumb/thumb2/crti.o
                0x08005164                _init
 .init          0x08005168        0x8 c:/tools/devkitpro/devkitarm/bin/../lib/gcc/arm-eabi/4.4.2/thumb/thumb2/crtn.o
 *(.fini)
 .fini          0x08005170        0x4 c:/tools/devkitpro/devkitarm/bin/../lib/gcc/arm-eabi/4.4.2/thumb/thumb2/crti.o
                0x08005170                _fini
 .fini          0x08005174        0x8 c:/tools/devkitpro/devkitarm/bin/../lib/gcc/arm-eabi/4.4.2/thumb/thumb2/crtn.o
                0x0800517c                . = ALIGN (0x4)
                0x0800517c                _etext = .

.glue_7         0x0800517c        0x0
 .glue_7        0x00000000        0x0 linker stubs

.glue_7t        0x0800517c        0x0
 .glue_7t       0x00000000        0x0 linker stubs

.vfp11_veneer   0x0800517c        0x0
 .vfp11_veneer  0x00000000        0x0 linker stubs

.v4_bx          0x0800517c        0x0
 .v4_bx         0x00000000        0x0 linker stubs

.preinit_array  0x0800517c        0x0
                0x0800517c                PROVIDE (__preinit_array_start, .)
 *(.preinit_array*)
                0x0800517c                PROVIDE (__preinit_array_end, .)

.init_array     0x0800517c        0x4
                0x0800517c                PROVIDE (__init_array_start, .)
 *(SORT(.init_array.*))
 *(.init_array*)
 .init_array    0x0800517c        0x4 c:/tools/devkitpro/devkitarm/bin/../lib/gcc/arm-eabi/4.4.2/thumb/thumb2/crtbegin.o
                0x08005180                PROVIDE (__init_array_end, .)

.fini_array     0x08005180        0x4
                0x08005180                PROVIDE (__fini_array_start, .)
 *(.fini_array*)
 .fini_array    0x08005180        0x4 c:/tools/devkitpro/devkitarm/bin/../lib/gcc/arm-eabi/4.4.2/thumb/thumb2/crtbegin.o
 *(SORT(.fini_array.*))
                0x08005184                PROVIDE (__fini_array_end, .)

.data           0x20000000       0x40 load address 0x08005184
                0x08005184                __data_load = LOADADDR (.data)
                0x20000000                __data_start = .
 *(.data)
 .data          0x20000000       0x24 dbg/stm32_eval.o
                0x20000000                GPIO_PORT
                0x20000010                COM_PORT
                0x20000014                COM_USART
                0x20000018                BUTTON_PORT
 .data          0x20000024        0x2 dbg/stm3210c_eval_lcd.o
 *fill*         0x20000026        0x2 00
 .data          0x20000028       0x14 dbg/stm32f10x_rcc.o
 .data          0x2000003c        0x1 ../../../../../ports/arm-cortex/qk/gnu/dbg\libqk_cortex-m3.a(qk.o)
                0x2000003c                QK_currPrio_
 *(.data*)
                0x20000040                . = ALIGN (0x4)
 *fill*         0x2000003d        0x3 00
                0x20000040                __data_end__ = .
                0x20000040                _edata = __data_end__

.jcr            0x20000040        0x0
 .jcr           0x20000040        0x0 c:/tools/devkitpro/devkitarm/bin/../lib/gcc/arm-eabi/4.4.2/thumb/thumb2/crtbegin.o

.bss            0x20000040      0x358 load address 0x080051c4
                0x20000040                __bss_start__ = .
 *(.bss)
 .bss           0x20000040       0x1c c:/tools/devkitpro/devkitarm/bin/../lib/gcc/arm-eabi/4.4.2/thumb/thumb2/crtbegin.o
 .bss           0x2000005c       0xd8 dbg/main.o
 .bss           0x20000134       0xe0 dbg/philo.o
 .bss           0x20000214       0x24 dbg/table.o
 .bss           0x20000238        0x2 dbg/stm3210c_eval_lcd.o
 .bss           0x2000023a        0x1 ../../../../../ports/arm-cortex/qk/gnu/dbg\libqf_cortex-m3.a(qf_tick.o)
 *(.bss*)
 *(COMMON)
 *fill*         0x2000023b        0x1 00
 COMMON         0x2000023c        0xa ../../../../../ports/arm-cortex/qk/gnu/dbg\libqk_cortex-m3.a(qk.o)
                0x2000023c                QK_readySet_
                0x20000245                QK_intNest_
 COMMON         0x20000246        0x1 ../../../../../ports/arm-cortex/qk/gnu/dbg\libqk_cortex-m3.a(qk_mutex.o)
                0x20000246                QK_ceilingPrio_
 *fill*         0x20000247        0x1 00
 COMMON         0x20000248      0x104 ../../../../../ports/arm-cortex/qk/gnu/dbg\libqf_cortex-m3.a(qf_act.o)
                0x20000248                QF_intLockNest_
                0x2000024c                QF_active_
 COMMON         0x2000034c       0x3d ../../../../../ports/arm-cortex/qk/gnu/dbg\libqf_cortex-m3.a(qf_pool.o)
                0x2000034c                QF_pool_
                0x20000388                QF_maxPool_
 *fill*         0x20000389        0x3 00
 COMMON         0x2000038c        0x8 ../../../../../ports/arm-cortex/qk/gnu/dbg\libqf_cortex-m3.a(qf_psini.o)
                0x2000038c                QF_maxSignal_
                0x20000390                QF_subscrList_
 COMMON         0x20000394        0x4 ../../../../../ports/arm-cortex/qk/gnu/dbg\libqf_cortex-m3.a(qte_arm.o)
                0x20000394                QF_timeEvtListHead_
                0x20000398                . = ALIGN (0x4)
                0x20000398                _ebss = .
                0x20000398                __bss_end__ = .
                0x20000398                PROVIDE (end, _ebss)
                0x20000398                PROVIDE (_end, _ebss)
                0x20000398                PROVIDE (__end__, _ebss)

.heap           0x20000398        0x0 load address 0x080051c4
                0x20000398                __heap_start__ = .
                0x20000398                . = (. + HEAP_SIZE)
                0x20000398                . = ALIGN (0x4)
                0x20000398                __heap_end__ = .

.stack          0x20000398      0x400 load address 0x080051c4
                0x20000398                __stack_start__ = .
                0x20000798                . = (. + STACK_SIZE)
 *fill*         0x20000398      0x400 00
                0x20000798                . = ALIGN (0x4)
                0x20000798                __c_stack_top__ = .
                0x20000798                __stack_end__ = .

/DISCARD/
 libc.a(*)
 libm.a(*)
 libgcc.a(*)
OUTPUT(dbg/dpp-qk.elf elf32-littlearm)

.ARM.attributes
                0x00000000       0x25
 .ARM.attributes
                0x00000000       0x17 c:/tools/devkitpro/devkitarm/bin/../lib/gcc/arm-eabi/4.4.2/thumb/thumb2/crti.o
 .ARM.attributes
                0x00000017       0x27 c:/tools/devkitpro/devkitarm/bin/../lib/gcc/arm-eabi/4.4.2/thumb/thumb2/crtbegin.o
 .ARM.attributes
                0x0000003e       0x17 c:/tools/devkitpro/devkitarm/bin/../lib/gcc/arm-eabi/4.4.2/../../../../arm-eabi/lib/thumb/thumb2/crt0.o
 .ARM.attributes
                0x00000055       0x31 dbg/bsp.o
 .ARM.attributes
                0x00000086       0x31 dbg/main.o
 .ARM.attributes
                0x000000b7       0x31 dbg/no_heap.o
 .ARM.attributes
                0x000000e8       0x31 dbg/philo.o
 .ARM.attributes
                0x00000119       0x31 dbg/table.o
 .ARM.attributes
                0x0000014a       0x31 dbg/startup_stm32f10x_cl.o
 .ARM.attributes
                0x0000017b       0x31 dbg/core_cm3.o
 .ARM.attributes
                0x000001ac       0x31 dbg/system_stm32f10x.o
 .ARM.attributes
                0x000001dd       0x31 dbg/stm32_eval.o
 .ARM.attributes
                0x0000020e       0x31 dbg/stm3210c_eval_lcd.o
 .ARM.attributes
                0x0000023f       0x31 dbg/stm3210c_eval_ioe.o
 .ARM.attributes
                0x00000270       0x31 dbg/misc.o
 .ARM.attributes
                0x000002a1       0x31 dbg/stm32f10x_adc.o
 .ARM.attributes
                0x000002d2       0x31 dbg/stm32f10x_bkp.o
 .ARM.attributes
                0x00000303       0x31 dbg/stm32f10x_can.o
 .ARM.attributes
                0x00000334       0x31 dbg/stm32f10x_crc.o
 .ARM.attributes
                0x00000365       0x31 dbg/stm32f10x_dac.o
 .ARM.attributes
                0x00000396       0x31 dbg/stm32f10x_dbgmcu.o
 .ARM.attributes
                0x000003c7       0x31 dbg/stm32f10x_dma.o
 .ARM.attributes
                0x000003f8       0x31 dbg/stm32f10x_exti.o
 .ARM.attributes
                0x00000429       0x31 dbg/stm32f10x_flash.o
 .ARM.attributes
                0x0000045a       0x31 dbg/stm32f10x_fsmc.o
 .ARM.attributes
                0x0000048b       0x31 dbg/stm32f10x_gpio.o
 .ARM.attributes
                0x000004bc       0x31 dbg/stm32f10x_i2c.o
 .ARM.attributes
                0x000004ed       0x31 dbg/stm32f10x_iwdg.o
 .ARM.attributes
                0x0000051e       0x31 dbg/stm32f10x_pwr.o
 .ARM.attributes
                0x0000054f       0x31 dbg/stm32f10x_rcc.o
 .ARM.attributes
                0x00000580       0x31 dbg/stm32f10x_rtc.o
 .ARM.attributes
                0x000005b1       0x31 dbg/stm32f10x_sdio.o
 .ARM.attributes
                0x000005e2       0x31 dbg/stm32f10x_spi.o
 .ARM.attributes
                0x00000613       0x31 dbg/stm32f10x_tim.o
 .ARM.attributes
                0x00000644       0x31 dbg/stm32f10x_usart.o
 .ARM.attributes
                0x00000675       0x31 dbg/stm32f10x_wwdg.o
 .ARM.attributes
                0x000006a6       0x31 ../../../../../ports/arm-cortex/qk/gnu/dbg\libqk_cortex-m3.a(qk.o)
 .ARM.attributes
                0x000006d7       0x31 ../../../../../ports/arm-cortex/qk/gnu/dbg\libqk_cortex-m3.a(qk_sched.o)
 .ARM.attributes
                0x00000708       0x31 ../../../../../ports/arm-cortex/qk/gnu/dbg\libqk_cortex-m3.a(qk_mutex.o)
 .ARM.attributes
                0x00000739       0x21 ../../../../../ports/arm-cortex/qk/gnu/dbg\libqk_cortex-m3.a(qk_port.o)
 .ARM.attributes
                0x0000075a       0x31 ../../../../../ports/arm-cortex/qk/gnu/dbg\libqf_cortex-m3.a(qa_fifo.o)
 .ARM.attributes
                0x0000078b       0x31 ../../../../../ports/arm-cortex/qk/gnu/dbg\libqf_cortex-m3.a(qa_get_.o)
 .ARM.attributes
                0x000007bc       0x31 ../../../../../ports/arm-cortex/qk/gnu/dbg\libqf_cortex-m3.a(qa_sub.o)
 .ARM.attributes
                0x000007ed       0x31 ../../../../../ports/arm-cortex/qk/gnu/dbg\libqf_cortex-m3.a(qeq_init.o)
 .ARM.attributes
                0x0000081e       0x31 ../../../../../ports/arm-cortex/qk/gnu/dbg\libqf_cortex-m3.a(qf_act.o)
 .ARM.attributes
                0x0000084f       0x31 ../../../../../ports/arm-cortex/qk/gnu/dbg\libqf_cortex-m3.a(qf_gc.o)
 .ARM.attributes
                0x00000880       0x31 ../../../../../ports/arm-cortex/qk/gnu/dbg\libqf_cortex-m3.a(qf_log2.o)
 .ARM.attributes
                0x000008b1       0x31 ../../../../../ports/arm-cortex/qk/gnu/dbg\libqf_cortex-m3.a(qf_new.o)
 .ARM.attributes
                0x000008e2       0x31 ../../../../../ports/arm-cortex/qk/gnu/dbg\libqf_cortex-m3.a(qf_pool.o)
 .ARM.attributes
                0x00000913       0x31 ../../../../../ports/arm-cortex/qk/gnu/dbg\libqf_cortex-m3.a(qf_psini.o)
 .ARM.attributes
                0x00000944       0x31 ../../../../../ports/arm-cortex/qk/gnu/dbg\libqf_cortex-m3.a(qf_pspub.o)
 .ARM.attributes
                0x00000975       0x31 ../../../../../ports/arm-cortex/qk/gnu/dbg\libqf_cortex-m3.a(qf_pwr2.o)
 .ARM.attributes
                0x000009a6       0x31 ../../../../../ports/arm-cortex/qk/gnu/dbg\libqf_cortex-m3.a(qf_tick.o)
 .ARM.attributes
                0x000009d7       0x31 ../../../../../ports/arm-cortex/qk/gnu/dbg\libqf_cortex-m3.a(qmp_get.o)
 .ARM.attributes
                0x00000a08       0x31 ../../../../../ports/arm-cortex/qk/gnu/dbg\libqf_cortex-m3.a(qmp_init.o)
 .ARM.attributes
                0x00000a39       0x31 ../../../../../ports/arm-cortex/qk/gnu/dbg\libqf_cortex-m3.a(qmp_put.o)
 .ARM.attributes
                0x00000a6a       0x31 ../../../../../ports/arm-cortex/qk/gnu/dbg\libqf_cortex-m3.a(qte_ctor.o)
 .ARM.attributes
                0x00000a9b       0x31 ../../../../../ports/arm-cortex/qk/gnu/dbg\libqf_cortex-m3.a(qte_arm.o)
 .ARM.attributes
                0x00000acc       0x31 ../../../../../ports/arm-cortex/qk/gnu/dbg\libqep_cortex-m3.a(qhsm_ini.o)
 .ARM.attributes
                0x00000afd       0x31 ../../../../../ports/arm-cortex/qk/gnu/dbg\libqep_cortex-m3.a(qhsm_dis.o)
 .ARM.attributes
                0x00000b2e       0x31 ../../../../../ports/arm-cortex/qk/gnu/dbg\libqep_cortex-m3.a(qhsm_top.o)
 .ARM.attributes
                0x00000b5f       0x31 ../../../../../ports/arm-cortex/qk/gnu/dbg\libqep_cortex-m3.a(qep.o)
 .ARM.attributes
                0x00000b90       0x27 c:/tools/devkitpro/devkitarm/bin/../lib/gcc/arm-eabi/4.4.2/../../../../arm-eabi/lib/thumb/thumb2\libc.a(lib_a-atexit.o)
 .ARM.attributes
                0x00000bb7       0x27 c:/tools/devkitpro/devkitarm/bin/../lib/gcc/arm-eabi/4.4.2/../../../../arm-eabi/lib/thumb/thumb2\libc.a(lib_a-exit.o)
 .ARM.attributes
                0x00000bde       0x27 c:/tools/devkitpro/devkitarm/bin/../lib/gcc/arm-eabi/4.4.2/../../../../arm-eabi/lib/thumb/thumb2\libc.a(lib_a-impure.o)
 .ARM.attributes
                0x00000c05       0x27 c:/tools/devkitpro/devkitarm/bin/../lib/gcc/arm-eabi/4.4.2/../../../../arm-eabi/lib/thumb/thumb2\libc.a(lib_a-init.o)
 .ARM.attributes
                0x00000c2c       0x27 c:/tools/devkitpro/devkitarm/bin/../lib/gcc/arm-eabi/4.4.2/../../../../arm-eabi/lib/thumb/thumb2\libc.a(lib_a-memset.o)
 .ARM.attributes
                0x00000c53       0x27 c:/tools/devkitpro/devkitarm/bin/../lib/gcc/arm-eabi/4.4.2/../../../../arm-eabi/lib/thumb/thumb2\libc.a(lib_a-__atexit.o)
 .ARM.attributes
                0x00000c7a       0x27 c:/tools/devkitpro/devkitarm/bin/../lib/gcc/arm-eabi/4.4.2/../../../../arm-eabi/lib/thumb/thumb2\libc.a(lib_a-__call_atexit.o)
 .ARM.attributes
                0x00000ca1       0x27 c:/tools/devkitpro/devkitarm/bin/../lib/gcc/arm-eabi/4.4.2/../../../../arm-eabi/lib/thumb/thumb2\libc.a(lib_a-findfp.o)
 .ARM.attributes
                0x00000cc8       0x27 c:/tools/devkitpro/devkitarm/bin/../lib/gcc/arm-eabi/4.4.2/../../../../arm-eabi/lib/thumb/thumb2\libc.a(lib_a-fwalk.o)
 .ARM.attributes
                0x00000cef       0x27 c:/tools/devkitpro/devkitarm/bin/../lib/gcc/arm-eabi/4.4.2/../../../../arm-eabi/lib/thumb/thumb2\libc.a(lib_a-mallocr.o)
 .ARM.attributes
                0x00000d16       0x27 c:/tools/devkitpro/devkitarm/bin/../lib/gcc/arm-eabi/4.4.2/../../../../arm-eabi/lib/thumb/thumb2\libc.a(lib_a-mlock.o)
 .ARM.attributes
                0x00000d3d       0x27 c:/tools/devkitpro/devkitarm/bin/../lib/gcc/arm-eabi/4.4.2/../../../../arm-eabi/lib/thumb/thumb2\libc.a(lib_a-stdio.o)
 .ARM.attributes
                0x00000d64       0x27 c:/tools/devkitpro/devkitarm/bin/../lib/gcc/arm-eabi/4.4.2/../../../../arm-eabi/lib/thumb/thumb2\libc.a(lib_a-fclose.o)
 .ARM.attributes
                0x00000d8b       0x27 c:/tools/devkitpro/devkitarm/bin/../lib/gcc/arm-eabi/4.4.2/../../../../arm-eabi/lib/thumb/thumb2\libc.a(lib_a-fflush.o)
 .ARM.attributes
                0x00000db2       0x27 c:/tools/devkitpro/devkitarm/bin/../lib/gcc/arm-eabi/4.4.2/../../../../arm-eabi/lib/thumb/thumb2\libc.a(lib_a-freer.o)
 .ARM.attributes
                0x00000dd9       0x27 c:/tools/devkitpro/devkitarm/bin/../lib/gcc/arm-eabi/4.4.2/../../../../arm-eabi/lib/thumb/thumb2\libsysbase.a(close.o)
 .ARM.attributes
                0x00000e00       0x27 c:/tools/devkitpro/devkitarm/bin/../lib/gcc/arm-eabi/4.4.2/../../../../arm-eabi/lib/thumb/thumb2\libsysbase.a(lseek.o)
 .ARM.attributes
                0x00000e27       0x27 c:/tools/devkitpro/devkitarm/bin/../lib/gcc/arm-eabi/4.4.2/../../../../arm-eabi/lib/thumb/thumb2\libsysbase.a(read.o)
 .ARM.attributes
                0x00000e4e       0x27 c:/tools/devkitpro/devkitarm/bin/../lib/gcc/arm-eabi/4.4.2/../../../../arm-eabi/lib/thumb/thumb2\libsysbase.a(sbrk.o)
 .ARM.attributes
                0x00000e75       0x27 c:/tools/devkitpro/devkitarm/bin/../lib/gcc/arm-eabi/4.4.2/../../../../arm-eabi/lib/thumb/thumb2\libsysbase.a(write.o)
 .ARM.attributes
                0x00000e9c       0x27 c:/tools/devkitpro/devkitarm/bin/../lib/gcc/arm-eabi/4.4.2/../../../../arm-eabi/lib/thumb/thumb2\libsysbase.a(_exit.o)
 .ARM.attributes
                0x00000ec3       0x27 c:/tools/devkitpro/devkitarm/bin/../lib/gcc/arm-eabi/4.4.2/../../../../arm-eabi/lib/thumb/thumb2\libsysbase.a(malloc_vars.o)
 .ARM.attributes
                0x00000eea       0x27 c:/tools/devkitpro/devkitarm/bin/../lib/gcc/arm-eabi/4.4.2/../../../../arm-eabi/lib/thumb/thumb2\libsysbase.a(syscall_support.o)
 .ARM.attributes
                0x00000f11       0x27 c:/tools/devkitpro/devkitarm/bin/../lib/gcc/arm-eabi/4.4.2/../../../../arm-eabi/lib/thumb/thumb2\libsysbase.a(handle_manager.o)
 .ARM.attributes
                0x00000f38       0x27 c:/tools/devkitpro/devkitarm/bin/../lib/gcc/arm-eabi/4.4.2/../../../../arm-eabi/lib/thumb/thumb2\libsysbase.a(iosupport.o)
 .ARM.attributes
                0x00000f5f       0x27 c:/tools/devkitpro/devkitarm/bin/../lib/gcc/arm-eabi/4.4.2/../../../../arm-eabi/lib/thumb/thumb2\libc.a(lib_a-strchr.o)
 .ARM.attributes
                0x00000f86       0x27 c:/tools/devkitpro/devkitarm/bin/../lib/gcc/arm-eabi/4.4.2/../../../../arm-eabi/lib/thumb/thumb2\libc.a(lib_a-strcmp.o)
 .ARM.attributes
                0x00000fad       0x27 c:/tools/devkitpro/devkitarm/bin/../lib/gcc/arm-eabi/4.4.2/../../../../arm-eabi/lib/thumb/thumb2\libc.a(lib_a-strlen.o)
 .ARM.attributes
                0x00000fd4       0x27 c:/tools/devkitpro/devkitarm/bin/../lib/gcc/arm-eabi/4.4.2/../../../../arm-eabi/lib/thumb/thumb2\libc.a(lib_a-strncmp.o)
 .ARM.attributes
                0x00000ffb       0x27 c:/tools/devkitpro/devkitarm/bin/../lib/gcc/arm-eabi/4.4.2/thumb/thumb2/crtend.o
 .ARM.attributes
                0x00001022       0x17 c:/tools/devkitpro/devkitarm/bin/../lib/gcc/arm-eabi/4.4.2/thumb/thumb2/crtn.o

.comment        0x00000000       0x22
 .comment       0x00000000       0x22 c:/tools/devkitpro/devkitarm/bin/../lib/gcc/arm-eabi/4.4.2/thumb/thumb2/crtbegin.o
                                 0x23 (size before relaxing)
 .comment       0x00000000       0x23 dbg/bsp.o
 .comment       0x00000000       0x23 dbg/main.o
 .comment       0x00000000       0x23 dbg/no_heap.o
 .comment       0x00000000       0x23 dbg/philo.o
 .comment       0x00000000       0x23 dbg/table.o
 .comment       0x00000000       0x23 dbg/startup_stm32f10x_cl.o
 .comment       0x00000000       0x23 dbg/core_cm3.o
 .comment       0x00000000       0x23 dbg/system_stm32f10x.o
 .comment       0x00000000       0x23 dbg/stm32_eval.o
 .comment       0x00000000       0x23 dbg/stm3210c_eval_lcd.o
 .comment       0x00000000       0x23 dbg/stm3210c_eval_ioe.o
 .comment       0x00000000       0x23 dbg/misc.o
 .comment       0x00000000       0x23 dbg/stm32f10x_adc.o
 .comment       0x00000000       0x23 dbg/stm32f10x_bkp.o
 .comment       0x00000000       0x23 dbg/stm32f10x_can.o
 .comment       0x00000000       0x23 dbg/stm32f10x_crc.o
 .comment       0x00000000       0x23 dbg/stm32f10x_dac.o
 .comment       0x00000000       0x23 dbg/stm32f10x_dbgmcu.o
 .comment       0x00000000       0x23 dbg/stm32f10x_dma.o
 .comment       0x00000000       0x23 dbg/stm32f10x_exti.o
 .comment       0x00000000       0x23 dbg/stm32f10x_flash.o
 .comment       0x00000000       0x23 dbg/stm32f10x_fsmc.o
 .comment       0x00000000       0x23 dbg/stm32f10x_gpio.o
 .comment       0x00000000       0x23 dbg/stm32f10x_i2c.o
 .comment       0x00000000       0x23 dbg/stm32f10x_iwdg.o
 .comment       0x00000000       0x23 dbg/stm32f10x_pwr.o
 .comment       0x00000000       0x23 dbg/stm32f10x_rcc.o
 .comment       0x00000000       0x23 dbg/stm32f10x_rtc.o
 .comment       0x00000000       0x23 dbg/stm32f10x_sdio.o
 .comment       0x00000000       0x23 dbg/stm32f10x_spi.o
 .comment       0x00000000       0x23 dbg/stm32f10x_tim.o
 .comment       0x00000000       0x23 dbg/stm32f10x_usart.o
 .comment       0x00000000       0x23 dbg/stm32f10x_wwdg.o
 .comment       0x00000000       0x23 ../../../../../ports/arm-cortex/qk/gnu/dbg\libqk_cortex-m3.a(qk.o)
 .comment       0x00000000       0x23 ../../../../../ports/arm-cortex/qk/gnu/dbg\libqk_cortex-m3.a(qk_sched.o)
 .comment       0x00000000       0x23 ../../../../../ports/arm-cortex/qk/gnu/dbg\libqk_cortex-m3.a(qk_mutex.o)
 .comment       0x00000000       0x23 ../../../../../ports/arm-cortex/qk/gnu/dbg\libqf_cortex-m3.a(qa_fifo.o)
 .comment       0x00000000       0x23 ../../../../../ports/arm-cortex/qk/gnu/dbg\libqf_cortex-m3.a(qa_get_.o)
 .comment       0x00000000       0x23 ../../../../../ports/arm-cortex/qk/gnu/dbg\libqf_cortex-m3.a(qa_sub.o)
 .comment       0x00000000       0x23 ../../../../../ports/arm-cortex/qk/gnu/dbg\libqf_cortex-m3.a(qeq_init.o)
 .comment       0x00000000       0x23 ../../../../../ports/arm-cortex/qk/gnu/dbg\libqf_cortex-m3.a(qf_act.o)
 .comment       0x00000000       0x23 ../../../../../ports/arm-cortex/qk/gnu/dbg\libqf_cortex-m3.a(qf_gc.o)
 .comment       0x00000000       0x23 ../../../../../ports/arm-cortex/qk/gnu/dbg\libqf_cortex-m3.a(qf_log2.o)
 .comment       0x00000000       0x23 ../../../../../ports/arm-cortex/qk/gnu/dbg\libqf_cortex-m3.a(qf_new.o)
 .comment       0x00000000       0x23 ../../../../../ports/arm-cortex/qk/gnu/dbg\libqf_cortex-m3.a(qf_pool.o)
 .comment       0x00000000       0x23 ../../../../../ports/arm-cortex/qk/gnu/dbg\libqf_cortex-m3.a(qf_psini.o)
 .comment       0x00000000       0x23 ../../../../../ports/arm-cortex/qk/gnu/dbg\libqf_cortex-m3.a(qf_pspub.o)
 .comment       0x00000000       0x23 ../../../../../ports/arm-cortex/qk/gnu/dbg\libqf_cortex-m3.a(qf_pwr2.o)
 .comment       0x00000000       0x23 ../../../../../ports/arm-cortex/qk/gnu/dbg\libqf_cortex-m3.a(qf_tick.o)
 .comment       0x00000000       0x23 ../../../../../ports/arm-cortex/qk/gnu/dbg\libqf_cortex-m3.a(qmp_get.o)
 .comment       0x00000000       0x23 ../../../../../ports/arm-cortex/qk/gnu/dbg\libqf_cortex-m3.a(qmp_init.o)
 .comment       0x00000000       0x23 ../../../../../ports/arm-cortex/qk/gnu/dbg\libqf_cortex-m3.a(qmp_put.o)
 .comment       0x00000000       0x23 ../../../../../ports/arm-cortex/qk/gnu/dbg\libqf_cortex-m3.a(qte_ctor.o)
 .comment       0x00000000       0x23 ../../../../../ports/arm-cortex/qk/gnu/dbg\libqf_cortex-m3.a(qte_arm.o)
 .comment       0x00000000       0x23 ../../../../../ports/arm-cortex/qk/gnu/dbg\libqep_cortex-m3.a(qhsm_ini.o)
 .comment       0x00000000       0x23 ../../../../../ports/arm-cortex/qk/gnu/dbg\libqep_cortex-m3.a(qhsm_dis.o)
 .comment       0x00000000       0x23 ../../../../../ports/arm-cortex/qk/gnu/dbg\libqep_cortex-m3.a(qhsm_top.o)
 .comment       0x00000000       0x23 ../../../../../ports/arm-cortex/qk/gnu/dbg\libqep_cortex-m3.a(qep.o)
 .comment       0x00000000       0x23 c:/tools/devkitpro/devkitarm/bin/../lib/gcc/arm-eabi/4.4.2/../../../../arm-eabi/lib/thumb/thumb2\libc.a(lib_a-atexit.o)
 .comment       0x00000000       0x23 c:/tools/devkitpro/devkitarm/bin/../lib/gcc/arm-eabi/4.4.2/../../../../arm-eabi/lib/thumb/thumb2\libc.a(lib_a-exit.o)
 .comment       0x00000000       0x23 c:/tools/devkitpro/devkitarm/bin/../lib/gcc/arm-eabi/4.4.2/../../../../arm-eabi/lib/thumb/thumb2\libc.a(lib_a-impure.o)
 .comment       0x00000000       0x23 c:/tools/devkitpro/devkitarm/bin/../lib/gcc/arm-eabi/4.4.2/../../../../arm-eabi/lib/thumb/thumb2\libc.a(lib_a-init.o)
 .comment       0x00000000       0x23 c:/tools/devkitpro/devkitarm/bin/../lib/gcc/arm-eabi/4.4.2/../../../../arm-eabi/lib/thumb/thumb2\libc.a(lib_a-memset.o)
 .comment       0x00000000       0x23 c:/tools/devkitpro/devkitarm/bin/../lib/gcc/arm-eabi/4.4.2/../../../../arm-eabi/lib/thumb/thumb2\libc.a(lib_a-__atexit.o)
 .comment       0x00000000       0x23 c:/tools/devkitpro/devkitarm/bin/../lib/gcc/arm-eabi/4.4.2/../../../../arm-eabi/lib/thumb/thumb2\libc.a(lib_a-__call_atexit.o)
 .comment       0x00000000       0x23 c:/tools/devkitpro/devkitarm/bin/../lib/gcc/arm-eabi/4.4.2/../../../../arm-eabi/lib/thumb/thumb2\libc.a(lib_a-findfp.o)
 .comment       0x00000000       0x23 c:/tools/devkitpro/devkitarm/bin/../lib/gcc/arm-eabi/4.4.2/../../../../arm-eabi/lib/thumb/thumb2\libc.a(lib_a-fwalk.o)
 .comment       0x00000000       0x23 c:/tools/devkitpro/devkitarm/bin/../lib/gcc/arm-eabi/4.4.2/../../../../arm-eabi/lib/thumb/thumb2\libc.a(lib_a-mallocr.o)
 .comment       0x00000000       0x23 c:/tools/devkitpro/devkitarm/bin/../lib/gcc/arm-eabi/4.4.2/../../../../arm-eabi/lib/thumb/thumb2\libc.a(lib_a-mlock.o)
 .comment       0x00000000       0x23 c:/tools/devkitpro/devkitarm/bin/../lib/gcc/arm-eabi/4.4.2/../../../../arm-eabi/lib/thumb/thumb2\libc.a(lib_a-stdio.o)
 .comment       0x00000000       0x23 c:/tools/devkitpro/devkitarm/bin/../lib/gcc/arm-eabi/4.4.2/../../../../arm-eabi/lib/thumb/thumb2\libc.a(lib_a-fclose.o)
 .comment       0x00000000       0x23 c:/tools/devkitpro/devkitarm/bin/../lib/gcc/arm-eabi/4.4.2/../../../../arm-eabi/lib/thumb/thumb2\libc.a(lib_a-fflush.o)
 .comment       0x00000000       0x23 c:/tools/devkitpro/devkitarm/bin/../lib/gcc/arm-eabi/4.4.2/../../../../arm-eabi/lib/thumb/thumb2\libc.a(lib_a-freer.o)
 .comment       0x00000000       0x23 c:/tools/devkitpro/devkitarm/bin/../lib/gcc/arm-eabi/4.4.2/../../../../arm-eabi/lib/thumb/thumb2\libsysbase.a(close.o)
 .comment       0x00000000       0x23 c:/tools/devkitpro/devkitarm/bin/../lib/gcc/arm-eabi/4.4.2/../../../../arm-eabi/lib/thumb/thumb2\libsysbase.a(lseek.o)
 .comment       0x00000000       0x23 c:/tools/devkitpro/devkitarm/bin/../lib/gcc/arm-eabi/4.4.2/../../../../arm-eabi/lib/thumb/thumb2\libsysbase.a(read.o)
 .comment       0x00000000       0x23 c:/tools/devkitpro/devkitarm/bin/../lib/gcc/arm-eabi/4.4.2/../../../../arm-eabi/lib/thumb/thumb2\libsysbase.a(sbrk.o)
 .comment       0x00000000       0x23 c:/tools/devkitpro/devkitarm/bin/../lib/gcc/arm-eabi/4.4.2/../../../../arm-eabi/lib/thumb/thumb2\libsysbase.a(write.o)
 .comment       0x00000000       0x23 c:/tools/devkitpro/devkitarm/bin/../lib/gcc/arm-eabi/4.4.2/../../../../arm-eabi/lib/thumb/thumb2\libsysbase.a(_exit.o)
 .comment       0x00000000       0x23 c:/tools/devkitpro/devkitarm/bin/../lib/gcc/arm-eabi/4.4.2/../../../../arm-eabi/lib/thumb/thumb2\libsysbase.a(malloc_vars.o)
 .comment       0x00000000       0x23 c:/tools/devkitpro/devkitarm/bin/../lib/gcc/arm-eabi/4.4.2/../../../../arm-eabi/lib/thumb/thumb2\libsysbase.a(syscall_support.o)
 .comment       0x00000000       0x23 c:/tools/devkitpro/devkitarm/bin/../lib/gcc/arm-eabi/4.4.2/../../../../arm-eabi/lib/thumb/thumb2\libsysbase.a(handle_manager.o)
 .comment       0x00000000       0x23 c:/tools/devkitpro/devkitarm/bin/../lib/gcc/arm-eabi/4.4.2/../../../../arm-eabi/lib/thumb/thumb2\libsysbase.a(iosupport.o)
 .comment       0x00000000       0x23 c:/tools/devkitpro/devkitarm/bin/../lib/gcc/arm-eabi/4.4.2/../../../../arm-eabi/lib/thumb/thumb2\libc.a(lib_a-strchr.o)
 .comment       0x00000000       0x23 c:/tools/devkitpro/devkitarm/bin/../lib/gcc/arm-eabi/4.4.2/../../../../arm-eabi/lib/thumb/thumb2\libc.a(lib_a-strcmp.o)
 .comment       0x00000000       0x23 c:/tools/devkitpro/devkitarm/bin/../lib/gcc/arm-eabi/4.4.2/../../../../arm-eabi/lib/thumb/thumb2\libc.a(lib_a-strlen.o)
 .comment       0x00000000       0x23 c:/tools/devkitpro/devkitarm/bin/../lib/gcc/arm-eabi/4.4.2/../../../../arm-eabi/lib/thumb/thumb2\libc.a(lib_a-strncmp.o)
 .comment       0x00000000       0x23 c:/tools/devkitpro/devkitarm/bin/../lib/gcc/arm-eabi/4.4.2/thumb/thumb2/crtend.o

.debug_abbrev   0x00000000     0x4d1e
 .debug_abbrev  0x00000000      0x275 dbg/bsp.o
 .debug_abbrev  0x00000275      0x187 dbg/main.o
 .debug_abbrev  0x000003fc       0xbd dbg/no_heap.o
 .debug_abbrev  0x000004b9      0x19a dbg/philo.o
 .debug_abbrev  0x00000653      0x155 dbg/table.o
 .debug_abbrev  0x000007a8       0xfa dbg/startup_stm32f10x_cl.o
 .debug_abbrev  0x000008a2       0xb2 dbg/core_cm3.o
 .debug_abbrev  0x00000954      0x117 dbg/system_stm32f10x.o
 .debug_abbrev  0x00000a6b      0x1b8 dbg/stm32_eval.o
 .debug_abbrev  0x00000c23      0x221 dbg/stm3210c_eval_lcd.o
 .debug_abbrev  0x00000e44      0x25d dbg/stm3210c_eval_ioe.o
 .debug_abbrev  0x000010a1      0x133 dbg/misc.o
 .debug_abbrev  0x000011d4      0x1f8 dbg/stm32f10x_adc.o
 .debug_abbrev  0x000013cc      0x174 dbg/stm32f10x_bkp.o
 .debug_abbrev  0x00001540      0x1fd dbg/stm32f10x_can.o
 .debug_abbrev  0x0000173d      0x104 dbg/stm32f10x_crc.o
 .debug_abbrev  0x00001841      0x1c7 dbg/stm32f10x_dac.o
 .debug_abbrev  0x00001a08       0xdf dbg/stm32f10x_dbgmcu.o
 .debug_abbrev  0x00001ae7      0x177 dbg/stm32f10x_dma.o
 .debug_abbrev  0x00001c5e      0x171 dbg/stm32f10x_exti.o
 .debug_abbrev  0x00001dcf      0x21c dbg/stm32f10x_flash.o
 .debug_abbrev  0x00001feb      0x1db dbg/stm32f10x_fsmc.o
 .debug_abbrev  0x000021c6      0x22d dbg/stm32f10x_gpio.o
 .debug_abbrev  0x000023f3      0x1bd dbg/stm32f10x_i2c.o
 .debug_abbrev  0x000025b0       0xfd dbg/stm32f10x_iwdg.o
 .debug_abbrev  0x000026ad      0x150 dbg/stm32f10x_pwr.o
 .debug_abbrev  0x000027fd      0x1d5 dbg/stm32f10x_rcc.o
 .debug_abbrev  0x000029d2      0x1a4 dbg/stm32f10x_rtc.o
 .debug_abbrev  0x00002b76      0x202 dbg/stm32f10x_sdio.o
 .debug_abbrev  0x00002d78      0x1bb dbg/stm32f10x_spi.o
 .debug_abbrev  0x00002f33      0x22c dbg/stm32f10x_tim.o
 .debug_abbrev  0x0000315f      0x1c8 dbg/stm32f10x_usart.o
 .debug_abbrev  0x00003327      0x11c dbg/stm32f10x_wwdg.o
 .debug_abbrev  0x00003443      0x150 ../../../../../ports/arm-cortex/qk/gnu/dbg\libqk_cortex-m3.a(qk.o)
 .debug_abbrev  0x00003593      0x11b ../../../../../ports/arm-cortex/qk/gnu/dbg\libqk_cortex-m3.a(qk_sched.o)
 .debug_abbrev  0x000036ae       0xa6 ../../../../../ports/arm-cortex/qk/gnu/dbg\libqk_cortex-m3.a(qk_mutex.o)
 .debug_abbrev  0x00003754       0x12 ../../../../../ports/arm-cortex/qk/gnu/dbg\libqk_cortex-m3.a(qk_port.o)
 .debug_abbrev  0x00003766      0x106 ../../../../../ports/arm-cortex/qk/gnu/dbg\libqf_cortex-m3.a(qa_fifo.o)
 .debug_abbrev  0x0000386c      0x138 ../../../../../ports/arm-cortex/qk/gnu/dbg\libqf_cortex-m3.a(qa_get_.o)
 .debug_abbrev  0x000039a4      0x165 ../../../../../ports/arm-cortex/qk/gnu/dbg\libqf_cortex-m3.a(qa_sub.o)
 .debug_abbrev  0x00003b09       0xb2 ../../../../../ports/arm-cortex/qk/gnu/dbg\libqf_cortex-m3.a(qeq_init.o)
 .debug_abbrev  0x00003bbb      0x116 ../../../../../ports/arm-cortex/qk/gnu/dbg\libqf_cortex-m3.a(qf_act.o)
 .debug_abbrev  0x00003cd1       0xf4 ../../../../../ports/arm-cortex/qk/gnu/dbg\libqf_cortex-m3.a(qf_gc.o)
 .debug_abbrev  0x00003dc5       0x6a ../../../../../ports/arm-cortex/qk/gnu/dbg\libqf_cortex-m3.a(qf_log2.o)
 .debug_abbrev  0x00003e2f       0xfc ../../../../../ports/arm-cortex/qk/gnu/dbg\libqf_cortex-m3.a(qf_new.o)
 .debug_abbrev  0x00003f2b       0xd3 ../../../../../ports/arm-cortex/qk/gnu/dbg\libqf_cortex-m3.a(qf_pool.o)
 .debug_abbrev  0x00003ffe       0xbd ../../../../../ports/arm-cortex/qk/gnu/dbg\libqf_cortex-m3.a(qf_psini.o)
 .debug_abbrev  0x000040bb      0x15d ../../../../../ports/arm-cortex/qk/gnu/dbg\libqf_cortex-m3.a(qf_pspub.o)
 .debug_abbrev  0x00004218       0x6a ../../../../../ports/arm-cortex/qk/gnu/dbg\libqf_cortex-m3.a(qf_pwr2.o)
 .debug_abbrev  0x00004282      0x124 ../../../../../ports/arm-cortex/qk/gnu/dbg\libqf_cortex-m3.a(qf_tick.o)
 .debug_abbrev  0x000043a6      0x122 ../../../../../ports/arm-cortex/qk/gnu/dbg\libqf_cortex-m3.a(qmp_get.o)
 .debug_abbrev  0x000044c8       0xf8 ../../../../../ports/arm-cortex/qk/gnu/dbg\libqf_cortex-m3.a(qmp_init.o)
 .debug_abbrev  0x000045c0       0xcb ../../../../../ports/arm-cortex/qk/gnu/dbg\libqf_cortex-m3.a(qmp_put.o)
 .debug_abbrev  0x0000468b      0x12f ../../../../../ports/arm-cortex/qk/gnu/dbg\libqf_cortex-m3.a(qte_ctor.o)
 .debug_abbrev  0x000047ba      0x14f ../../../../../ports/arm-cortex/qk/gnu/dbg\libqf_cortex-m3.a(qte_arm.o)
 .debug_abbrev  0x00004909      0x130 ../../../../../ports/arm-cortex/qk/gnu/dbg\libqep_cortex-m3.a(qhsm_ini.o)
 .debug_abbrev  0x00004a39      0x132 ../../../../../ports/arm-cortex/qk/gnu/dbg\libqep_cortex-m3.a(qhsm_dis.o)
 .debug_abbrev  0x00004b6b       0xc4 ../../../../../ports/arm-cortex/qk/gnu/dbg\libqep_cortex-m3.a(qhsm_top.o)
 .debug_abbrev  0x00004c2f       0xef ../../../../../ports/arm-cortex/qk/gnu/dbg\libqep_cortex-m3.a(qep.o)

.debug_info     0x00000000    0x1207d
 .debug_info    0x00000000      0xb16 dbg/bsp.o
 .debug_info    0x00000b16      0x3ff dbg/main.o
 .debug_info    0x00000f15      0x13b dbg/no_heap.o
 .debug_info    0x00001050      0x53b dbg/philo.o
 .debug_info    0x0000158b      0x415 dbg/table.o
 .debug_info    0x000019a0      0x147 dbg/startup_stm32f10x_cl.o
 .debug_info    0x00001ae7      0x527 dbg/core_cm3.o
 .debug_info    0x0000200e      0x2b6 dbg/system_stm32f10x.o
 .debug_info    0x000022c4      0x9f6 dbg/stm32_eval.o
 .debug_info    0x00002cba      0xaaf dbg/stm3210c_eval_lcd.o
 .debug_info    0x00003769     0x10c7 dbg/stm3210c_eval_ioe.o
 .debug_info    0x00004830      0x4e3 dbg/misc.o
 .debug_info    0x00004d13      0xb6d dbg/stm32f10x_adc.o
 .debug_info    0x00005880      0x82b dbg/stm32f10x_bkp.o
 .debug_info    0x000060ab      0xaab dbg/stm32f10x_can.o
 .debug_info    0x00006b56      0x1bd dbg/stm32f10x_crc.o
 .debug_info    0x00006d13      0x48a dbg/stm32f10x_dac.o
 .debug_info    0x0000719d      0x118 dbg/stm32f10x_dbgmcu.o
 .debug_info    0x000072b5      0x410 dbg/stm32f10x_dma.o
 .debug_info    0x000076c5      0x30c dbg/stm32f10x_exti.o
 .debug_info    0x000079d1      0x72e dbg/stm32f10x_flash.o
 .debug_info    0x000080ff      0x8e5 dbg/stm32f10x_fsmc.o
 .debug_info    0x000089e4      0x686 dbg/stm32f10x_gpio.o
 .debug_info    0x0000906a      0xabc dbg/stm32f10x_i2c.o
 .debug_info    0x00009b26      0x1b3 dbg/stm32f10x_iwdg.o
 .debug_info    0x00009cd9      0x29d dbg/stm32f10x_pwr.o
 .debug_info    0x00009f76      0xa92 dbg/stm32f10x_rcc.o
 .debug_info    0x0000aa08      0x410 dbg/stm32f10x_rtc.o
 .debug_info    0x0000ae18      0x80c dbg/stm32f10x_sdio.o
 .debug_info    0x0000b624      0x9c3 dbg/stm32f10x_spi.o
 .debug_info    0x0000bfe7     0x1d38 dbg/stm32f10x_tim.o
 .debug_info    0x0000dd1f      0x970 dbg/stm32f10x_usart.o
 .debug_info    0x0000e68f      0x1f7 dbg/stm32f10x_wwdg.o
 .debug_info    0x0000e886      0x405 ../../../../../ports/arm-cortex/qk/gnu/dbg\libqk_cortex-m3.a(qk.o)
 .debug_info    0x0000ec8b      0x361 ../../../../../ports/arm-cortex/qk/gnu/dbg\libqk_cortex-m3.a(qk_sched.o)
 .debug_info    0x0000efec       0xef ../../../../../ports/arm-cortex/qk/gnu/dbg\libqk_cortex-m3.a(qk_mutex.o)
 .debug_info    0x0000f0db       0x58 ../../../../../ports/arm-cortex/qk/gnu/dbg\libqk_cortex-m3.a(qk_port.o)
 .debug_info    0x0000f133      0x316 ../../../../../ports/arm-cortex/qk/gnu/dbg\libqf_cortex-m3.a(qa_fifo.o)
 .debug_info    0x0000f449      0x364 ../../../../../ports/arm-cortex/qk/gnu/dbg\libqf_cortex-m3.a(qa_get_.o)
 .debug_info    0x0000f7ad      0x345 ../../../../../ports/arm-cortex/qk/gnu/dbg\libqf_cortex-m3.a(qa_sub.o)
 .debug_info    0x0000faf2      0x185 ../../../../../ports/arm-cortex/qk/gnu/dbg\libqf_cortex-m3.a(qeq_init.o)
 .debug_info    0x0000fc77      0x2fd ../../../../../ports/arm-cortex/qk/gnu/dbg\libqf_cortex-m3.a(qf_act.o)
 .debug_info    0x0000ff74      0x1ea ../../../../../ports/arm-cortex/qk/gnu/dbg\libqf_cortex-m3.a(qf_gc.o)
 .debug_info    0x0001015e       0x93 ../../../../../ports/arm-cortex/qk/gnu/dbg\libqf_cortex-m3.a(qf_log2.o)
 .debug_info    0x000101f1      0x208 ../../../../../ports/arm-cortex/qk/gnu/dbg\libqf_cortex-m3.a(qf_new.o)
 .debug_info    0x000103f9      0x1c7 ../../../../../ports/arm-cortex/qk/gnu/dbg\libqf_cortex-m3.a(qf_pool.o)
 .debug_info    0x000105c0      0x10c ../../../../../ports/arm-cortex/qk/gnu/dbg\libqf_cortex-m3.a(qf_psini.o)
 .debug_info    0x000106cc      0x33d ../../../../../ports/arm-cortex/qk/gnu/dbg\libqf_cortex-m3.a(qf_pspub.o)
 .debug_info    0x00010a09       0xc1 ../../../../../ports/arm-cortex/qk/gnu/dbg\libqf_cortex-m3.a(qf_pwr2.o)
 .debug_info    0x00010aca      0x2d5 ../../../../../ports/arm-cortex/qk/gnu/dbg\libqf_cortex-m3.a(qf_tick.o)
 .debug_info    0x00010d9f      0x213 ../../../../../ports/arm-cortex/qk/gnu/dbg\libqf_cortex-m3.a(qmp_get.o)
 .debug_info    0x00010fb2      0x1ef ../../../../../ports/arm-cortex/qk/gnu/dbg\libqf_cortex-m3.a(qmp_init.o)
 .debug_info    0x000111a1      0x187 ../../../../../ports/arm-cortex/qk/gnu/dbg\libqf_cortex-m3.a(qmp_put.o)
 .debug_info    0x00011328      0x311 ../../../../../ports/arm-cortex/qk/gnu/dbg\libqf_cortex-m3.a(qte_ctor.o)
 .debug_info    0x00011639      0x332 ../../../../../ports/arm-cortex/qk/gnu/dbg\libqf_cortex-m3.a(qte_arm.o)
 .debug_info    0x0001196b      0x21d ../../../../../ports/arm-cortex/qk/gnu/dbg\libqep_cortex-m3.a(qhsm_ini.o)
 .debug_info    0x00011b88      0x249 ../../../../../ports/arm-cortex/qk/gnu/dbg\libqep_cortex-m3.a(qhsm_dis.o)
 .debug_info    0x00011dd1      0x147 ../../../../../ports/arm-cortex/qk/gnu/dbg\libqep_cortex-m3.a(qhsm_top.o)
 .debug_info    0x00011f18      0x165 ../../../../../ports/arm-cortex/qk/gnu/dbg\libqep_cortex-m3.a(qep.o)

.debug_line     0x00000000     0x4c9c
 .debug_line    0x00000000      0x1e6 dbg/bsp.o
 .debug_line    0x000001e6       0xf3 dbg/main.o
 .debug_line    0x000002d9       0xf8 dbg/no_heap.o
 .debug_line    0x000003d1      0x11b dbg/philo.o
 .debug_line    0x000004ec      0x11e dbg/table.o
 .debug_line    0x0000060a       0x61 dbg/startup_stm32f10x_cl.o
 .debug_line    0x0000066b      0x110 dbg/core_cm3.o
 .debug_line    0x0000077b       0xe7 dbg/system_stm32f10x.o
 .debug_line    0x00000862      0x16f dbg/stm32_eval.o
 .debug_line    0x000009d1      0x29a dbg/stm3210c_eval_lcd.o
 .debug_line    0x00000c6b      0x33e dbg/stm3210c_eval_ioe.o
 .debug_line    0x00000fa9      0x108 dbg/misc.o
 .debug_line    0x000010b1      0x206 dbg/stm32f10x_adc.o
 .debug_line    0x000012b7      0x106 dbg/stm32f10x_bkp.o
 .debug_line    0x000013bd      0x226 dbg/stm32f10x_can.o
 .debug_line    0x000015e3       0xde dbg/stm32f10x_crc.o
 .debug_line    0x000016c1      0x146 dbg/stm32f10x_dac.o
 .debug_line    0x00001807       0xd6 dbg/stm32f10x_dbgmcu.o
 .debug_line    0x000018dd      0x158 dbg/stm32f10x_dma.o
 .debug_line    0x00001a35      0x127 dbg/stm32f10x_exti.o
 .debug_line    0x00001b5c      0x1f7 dbg/stm32f10x_flash.o
 .debug_line    0x00001d53      0x1e8 dbg/stm32f10x_fsmc.o
 .debug_line    0x00001f3b      0x1a4 dbg/stm32f10x_gpio.o
 .debug_line    0x000020df      0x1f5 dbg/stm32f10x_i2c.o
 .debug_line    0x000022d4       0xe3 dbg/stm32f10x_iwdg.o
 .debug_line    0x000023b7      0x122 dbg/stm32f10x_pwr.o
 .debug_line    0x000024d9      0x22a dbg/stm32f10x_rcc.o
 .debug_line    0x00002703      0x112 dbg/stm32f10x_rtc.o
 .debug_line    0x00002815      0x1a0 dbg/stm32f10x_sdio.o
 .debug_line    0x000029b5      0x1ce dbg/stm32f10x_spi.o
 .debug_line    0x00002b83      0x41c dbg/stm32f10x_tim.o
 .debug_line    0x00002f9f      0x1e9 dbg/stm32f10x_usart.o
 .debug_line    0x00003188       0xee dbg/stm32f10x_wwdg.o
 .debug_line    0x00003276      0x11e ../../../../../ports/arm-cortex/qk/gnu/dbg\libqk_cortex-m3.a(qk.o)
 .debug_line    0x00003394      0x148 ../../../../../ports/arm-cortex/qk/gnu/dbg\libqk_cortex-m3.a(qk_sched.o)
 .debug_line    0x000034dc       0xdf ../../../../../ports/arm-cortex/qk/gnu/dbg\libqk_cortex-m3.a(qk_mutex.o)
 .debug_line    0x000035bb       0x7a ../../../../../ports/arm-cortex/qk/gnu/dbg\libqk_cortex-m3.a(qk_port.o)
 .debug_line    0x00003635      0x118 ../../../../../ports/arm-cortex/qk/gnu/dbg\libqf_cortex-m3.a(qa_fifo.o)
 .debug_line    0x0000374d      0x120 ../../../../../ports/arm-cortex/qk/gnu/dbg\libqf_cortex-m3.a(qa_get_.o)
 .debug_line    0x0000386d      0x11c ../../../../../ports/arm-cortex/qk/gnu/dbg\libqf_cortex-m3.a(qa_sub.o)
 .debug_line    0x00003989       0xe9 ../../../../../ports/arm-cortex/qk/gnu/dbg\libqf_cortex-m3.a(qeq_init.o)
 .debug_line    0x00003a72      0x108 ../../../../../ports/arm-cortex/qk/gnu/dbg\libqf_cortex-m3.a(qf_act.o)
 .debug_line    0x00003b7a      0x10c ../../../../../ports/arm-cortex/qk/gnu/dbg\libqf_cortex-m3.a(qf_gc.o)
 .debug_line    0x00003c86       0xa4 ../../../../../ports/arm-cortex/qk/gnu/dbg\libqf_cortex-m3.a(qf_log2.o)
 .debug_line    0x00003d2a      0x117 ../../../../../ports/arm-cortex/qk/gnu/dbg\libqf_cortex-m3.a(qf_new.o)
 .debug_line    0x00003e41       0xe2 ../../../../../ports/arm-cortex/qk/gnu/dbg\libqf_cortex-m3.a(qf_pool.o)
 .debug_line    0x00003f23       0xdf ../../../../../ports/arm-cortex/qk/gnu/dbg\libqf_cortex-m3.a(qf_psini.o)
 .debug_line    0x00004002      0x132 ../../../../../ports/arm-cortex/qk/gnu/dbg\libqf_cortex-m3.a(qf_pspub.o)
 .debug_line    0x00004134       0xa4 ../../../../../ports/arm-cortex/qk/gnu/dbg\libqf_cortex-m3.a(qf_pwr2.o)
 .debug_line    0x000041d8      0x138 ../../../../../ports/arm-cortex/qk/gnu/dbg\libqf_cortex-m3.a(qf_tick.o)
 .debug_line    0x00004310      0x106 ../../../../../ports/arm-cortex/qk/gnu/dbg\libqf_cortex-m3.a(qmp_get.o)
 .debug_line    0x00004416      0x118 ../../../../../ports/arm-cortex/qk/gnu/dbg\libqf_cortex-m3.a(qmp_init.o)
 .debug_line    0x0000452e       0xfe ../../../../../ports/arm-cortex/qk/gnu/dbg\libqf_cortex-m3.a(qmp_put.o)
 .debug_line    0x0000462c       0xfb ../../../../../ports/arm-cortex/qk/gnu/dbg\libqf_cortex-m3.a(qte_ctor.o)
 .debug_line    0x00004727       0xff ../../../../../ports/arm-cortex/qk/gnu/dbg\libqf_cortex-m3.a(qte_arm.o)
 .debug_line    0x00004826      0x11d ../../../../../ports/arm-cortex/qk/gnu/dbg\libqep_cortex-m3.a(qhsm_ini.o)
 .debug_line    0x00004943      0x178 ../../../../../ports/arm-cortex/qk/gnu/dbg\libqep_cortex-m3.a(qhsm_dis.o)
 .debug_line    0x00004abb       0xdf ../../../../../ports/arm-cortex/qk/gnu/dbg\libqep_cortex-m3.a(qhsm_top.o)
 .debug_line    0x00004b9a      0x102 ../../../../../ports/arm-cortex/qk/gnu/dbg\libqep_cortex-m3.a(qep.o)

.debug_frame    0x00000000     0x32e4
 .debug_frame   0x00000000      0x118 dbg/bsp.o
 .debug_frame   0x00000118       0x3c dbg/main.o
 .debug_frame   0x00000154       0x64 dbg/no_heap.o
 .debug_frame   0x000001b8       0xb0 dbg/philo.o
 .debug_frame   0x00000268       0x64 dbg/table.o
 .debug_frame   0x000002cc       0x50 dbg/startup_stm32f10x_cl.o
 .debug_frame   0x0000031c      0x170 dbg/core_cm3.o
 .debug_frame   0x0000048c       0x24 dbg/system_stm32f10x.o
 .debug_frame   0x000004b0       0xcc dbg/stm32_eval.o
 .debug_frame   0x0000057c      0x3cc dbg/stm3210c_eval_lcd.o
 .debug_frame   0x00000948      0x398 dbg/stm3210c_eval_ioe.o
 .debug_frame   0x00000ce0       0x60 dbg/misc.o
 .debug_frame   0x00000d40      0x27c dbg/stm32f10x_adc.o
 .debug_frame   0x00000fbc       0xe4 dbg/stm32f10x_bkp.o
 .debug_frame   0x000010a0      0x18c dbg/stm32f10x_can.o
 .debug_frame   0x0000122c       0x70 dbg/stm32f10x_crc.o
 .debug_frame   0x0000129c       0xf0 dbg/stm32f10x_dac.o
 .debug_frame   0x0000138c       0x40 dbg/stm32f10x_dbgmcu.o
 .debug_frame   0x000013cc       0xb0 dbg/stm32f10x_dma.o
 .debug_frame   0x0000147c       0x90 dbg/stm32f10x_exti.o
 .debug_frame   0x0000150c      0x210 dbg/stm32f10x_flash.o
 .debug_frame   0x0000171c      0x154 dbg/stm32f10x_fsmc.o
 .debug_frame   0x00001870      0x170 dbg/stm32f10x_gpio.o
 .debug_frame   0x000019e0      0x238 dbg/stm32f10x_i2c.o
 .debug_frame   0x00001c18       0x70 dbg/stm32f10x_iwdg.o
 .debug_frame   0x00001c88       0xac dbg/stm32f10x_pwr.o
 .debug_frame   0x00001d34      0x2b4 dbg/stm32f10x_rcc.o
 .debug_frame   0x00001fe8      0x114 dbg/stm32f10x_rtc.o
 .debug_frame   0x000020fc      0x1f4 dbg/stm32f10x_sdio.o
 .debug_frame   0x000022f0      0x1a4 dbg/stm32f10x_spi.o
 .debug_frame   0x00002494      0x668 dbg/stm32f10x_tim.o
 .debug_frame   0x00002afc      0x1dc dbg/stm32f10x_usart.o
 .debug_frame   0x00002cd8       0xa0 dbg/stm32f10x_wwdg.o
 .debug_frame   0x00002d78       0xb8 ../../../../../ports/arm-cortex/qk/gnu/dbg\libqk_cortex-m3.a(qk.o)
 .debug_frame   0x00002e30       0x44 ../../../../../ports/arm-cortex/qk/gnu/dbg\libqk_cortex-m3.a(qk_sched.o)
 .debug_frame   0x00002e74       0x3c ../../../../../ports/arm-cortex/qk/gnu/dbg\libqk_cortex-m3.a(qk_mutex.o)
 .debug_frame   0x00002eb0       0x30 ../../../../../ports/arm-cortex/qk/gnu/dbg\libqf_cortex-m3.a(qa_fifo.o)
 .debug_frame   0x00002ee0       0x48 ../../../../../ports/arm-cortex/qk/gnu/dbg\libqf_cortex-m3.a(qa_get_.o)
 .debug_frame   0x00002f28       0x30 ../../../../../ports/arm-cortex/qk/gnu/dbg\libqf_cortex-m3.a(qa_sub.o)
 .debug_frame   0x00002f58       0x20 ../../../../../ports/arm-cortex/qk/gnu/dbg\libqf_cortex-m3.a(qeq_init.o)
 .debug_frame   0x00002f78       0x5c ../../../../../ports/arm-cortex/qk/gnu/dbg\libqf_cortex-m3.a(qf_act.o)
 .debug_frame   0x00002fd4       0x30 ../../../../../ports/arm-cortex/qk/gnu/dbg\libqf_cortex-m3.a(qf_gc.o)
 .debug_frame   0x00003004       0x3c ../../../../../ports/arm-cortex/qk/gnu/dbg\libqf_cortex-m3.a(qf_new.o)
 .debug_frame   0x00003040       0x38 ../../../../../ports/arm-cortex/qk/gnu/dbg\libqf_cortex-m3.a(qf_pool.o)
 .debug_frame   0x00003078       0x20 ../../../../../ports/arm-cortex/qk/gnu/dbg\libqf_cortex-m3.a(qf_psini.o)
 .debug_frame   0x00003098       0x44 ../../../../../ports/arm-cortex/qk/gnu/dbg\libqf_cortex-m3.a(qf_pspub.o)
 .debug_frame   0x000030dc       0x38 ../../../../../ports/arm-cortex/qk/gnu/dbg\libqf_cortex-m3.a(qf_tick.o)
 .debug_frame   0x00003114       0x3c ../../../../../ports/arm-cortex/qk/gnu/dbg\libqf_cortex-m3.a(qmp_get.o)
 .debug_frame   0x00003150       0x3c ../../../../../ports/arm-cortex/qk/gnu/dbg\libqf_cortex-m3.a(qmp_init.o)
 .debug_frame   0x0000318c       0x30 ../../../../../ports/arm-cortex/qk/gnu/dbg\libqf_cortex-m3.a(qmp_put.o)
 .debug_frame   0x000031bc       0x30 ../../../../../ports/arm-cortex/qk/gnu/dbg\libqf_cortex-m3.a(qte_ctor.o)
 .debug_frame   0x000031ec       0x30 ../../../../../ports/arm-cortex/qk/gnu/dbg\libqf_cortex-m3.a(qte_arm.o)
 .debug_frame   0x0000321c       0x44 ../../../../../ports/arm-cortex/qk/gnu/dbg\libqep_cortex-m3.a(qhsm_ini.o)
 .debug_frame   0x00003260       0x44 ../../../../../ports/arm-cortex/qk/gnu/dbg\libqep_cortex-m3.a(qhsm_dis.o)
 .debug_frame   0x000032a4       0x20 ../../../../../ports/arm-cortex/qk/gnu/dbg\libqep_cortex-m3.a(qhsm_top.o)
 .debug_frame   0x000032c4       0x20 ../../../../../ports/arm-cortex/qk/gnu/dbg\libqep_cortex-m3.a(qep.o)

.debug_loc      0x00000000     0x64ba
 .debug_loc     0x00000000      0x187 dbg/bsp.o
 .debug_loc     0x00000187       0x7a dbg/main.o
 .debug_loc     0x00000201       0xa9 dbg/no_heap.o
 .debug_loc     0x000002aa      0x23b dbg/philo.o
 .debug_loc     0x000004e5      0x16b dbg/table.o
 .debug_loc     0x00000650       0x51 dbg/startup_stm32f10x_cl.o
 .debug_loc     0x000006a1      0x1ee dbg/core_cm3.o
 .debug_loc     0x0000088f       0x57 dbg/system_stm32f10x.o
 .debug_loc     0x000008e6      0x149 dbg/stm32_eval.o
 .debug_loc     0x00000a2f      0x991 dbg/stm3210c_eval_lcd.o
 .debug_loc     0x000013c0      0xc1f dbg/stm3210c_eval_ioe.o
 .debug_loc     0x00001fdf       0x9e dbg/misc.o
 .debug_loc     0x0000207d      0x504 dbg/stm32f10x_adc.o
 .debug_loc     0x00002581       0xcd dbg/stm32f10x_bkp.o
 .debug_loc     0x0000264e      0x478 dbg/stm32f10x_can.o
 .debug_loc     0x00002ac6       0x39 dbg/stm32f10x_crc.o
 .debug_loc     0x00002aff      0x2ad dbg/stm32f10x_dac.o
 .debug_loc     0x00002dac       0x1e dbg/stm32f10x_dbgmcu.o
 .debug_loc     0x00002dca       0xa6 dbg/stm32f10x_dma.o
 .debug_loc     0x00002e70       0x57 dbg/stm32f10x_exti.o
 .debug_loc     0x00002ec7      0x649 dbg/stm32f10x_flash.o
 .debug_loc     0x00003510      0x255 dbg/stm32f10x_fsmc.o
 .debug_loc     0x00003765      0x24d dbg/stm32f10x_gpio.o
 .debug_loc     0x000039b2      0x348 dbg/stm32f10x_i2c.o
 .debug_loc     0x00003cfa       0x13 dbg/stm32f10x_iwdg.o
 .debug_loc     0x00003d0d       0xa7 dbg/stm32f10x_pwr.o
 .debug_loc     0x00003db4      0x468 dbg/stm32f10x_rcc.o
 .debug_loc     0x0000421c      0x152 dbg/stm32f10x_rtc.o
 .debug_loc     0x0000436e      0x129 dbg/stm32f10x_sdio.o
 .debug_loc     0x00004497      0x304 dbg/stm32f10x_spi.o
 .debug_loc     0x0000479b      0xbcc dbg/stm32f10x_tim.o
 .debug_loc     0x00005367      0x30e dbg/stm32f10x_usart.o
 .debug_loc     0x00005675       0xde dbg/stm32f10x_wwdg.o
 .debug_loc     0x00005753      0x15c ../../../../../ports/arm-cortex/qk/gnu/dbg\libqk_cortex-m3.a(qk.o)
 .debug_loc     0x000058af       0xb8 ../../../../../ports/arm-cortex/qk/gnu/dbg\libqk_cortex-m3.a(qk_sched.o)
 .debug_loc     0x00005967       0x5b ../../../../../ports/arm-cortex/qk/gnu/dbg\libqk_cortex-m3.a(qk_mutex.o)
 .debug_loc     0x000059c2       0x71 ../../../../../ports/arm-cortex/qk/gnu/dbg\libqf_cortex-m3.a(qa_fifo.o)
 .debug_loc     0x00005a33       0x98 ../../../../../ports/arm-cortex/qk/gnu/dbg\libqf_cortex-m3.a(qa_get_.o)
 .debug_loc     0x00005acb       0x79 ../../../../../ports/arm-cortex/qk/gnu/dbg\libqf_cortex-m3.a(qa_sub.o)
 .debug_loc     0x00005b44       0x7a ../../../../../ports/arm-cortex/qk/gnu/dbg\libqf_cortex-m3.a(qf_act.o)
 .debug_loc     0x00005bbe       0x50 ../../../../../ports/arm-cortex/qk/gnu/dbg\libqf_cortex-m3.a(qf_gc.o)
 .debug_loc     0x00005c0e       0xa2 ../../../../../ports/arm-cortex/qk/gnu/dbg\libqf_cortex-m3.a(qf_new.o)
 .debug_loc     0x00005cb0       0x79 ../../../../../ports/arm-cortex/qk/gnu/dbg\libqf_cortex-m3.a(qf_pool.o)
 .debug_loc     0x00005d29       0x7a ../../../../../ports/arm-cortex/qk/gnu/dbg\libqf_cortex-m3.a(qf_pspub.o)
 .debug_loc     0x00005da3       0x1f ../../../../../ports/arm-cortex/qk/gnu/dbg\libqf_cortex-m3.a(qf_tick.o)
 .debug_loc     0x00005dc2       0x79 ../../../../../ports/arm-cortex/qk/gnu/dbg\libqf_cortex-m3.a(qmp_get.o)
 .debug_loc     0x00005e3b      0x11d ../../../../../ports/arm-cortex/qk/gnu/dbg\libqf_cortex-m3.a(qmp_init.o)
 .debug_loc     0x00005f58       0x5b ../../../../../ports/arm-cortex/qk/gnu/dbg\libqf_cortex-m3.a(qmp_put.o)
 .debug_loc     0x00005fb3       0x5b ../../../../../ports/arm-cortex/qk/gnu/dbg\libqf_cortex-m3.a(qte_ctor.o)
 .debug_loc     0x0000600e       0x8f ../../../../../ports/arm-cortex/qk/gnu/dbg\libqf_cortex-m3.a(qte_arm.o)
 .debug_loc     0x0000609d       0xf1 ../../../../../ports/arm-cortex/qk/gnu/dbg\libqep_cortex-m3.a(qhsm_ini.o)
 .debug_loc     0x0000618e      0x319 ../../../../../ports/arm-cortex/qk/gnu/dbg\libqep_cortex-m3.a(qhsm_dis.o)
 .debug_loc     0x000064a7       0x13 ../../../../../ports/arm-cortex/qk/gnu/dbg\libqep_cortex-m3.a(qhsm_top.o)

.debug_pubnames
                0x00000000     0x3760
 .debug_pubnames
                0x00000000       0xc2 dbg/bsp.o
 .debug_pubnames
                0x000000c2       0x1b dbg/main.o
 .debug_pubnames
                0x000000dd       0x31 dbg/no_heap.o
 .debug_pubnames
                0x0000010e       0x2e dbg/philo.o
 .debug_pubnames
                0x0000013c       0x2e dbg/table.o
 .debug_pubnames
                0x0000016a       0x4a dbg/startup_stm32f10x_cl.o
 .debug_pubnames
                0x000001b4      0x159 dbg/core_cm3.o
 .debug_pubnames
                0x0000030d       0xa3 dbg/system_stm32f10x.o
 .debug_pubnames
                0x000003b0      0x1a9 dbg/stm32_eval.o
 .debug_pubnames
                0x00000559      0x25c dbg/stm3210c_eval_lcd.o
 .debug_pubnames
                0x000007b5      0x251 dbg/stm3210c_eval_ioe.o
 .debug_pubnames
                0x00000a06       0x89 dbg/misc.o
 .debug_pubnames
                0x00000a8f      0x401 dbg/stm32f10x_adc.o
 .debug_pubnames
                0x00000e90      0x128 dbg/stm32f10x_bkp.o
 .debug_pubnames
                0x00000fb8      0x17b dbg/stm32f10x_can.o
 .debug_pubnames
                0x00001133       0x82 dbg/stm32f10x_crc.o
 .debug_pubnames
                0x000011b5      0x116 dbg/stm32f10x_dac.o
 .debug_pubnames
                0x000012cb       0x4c dbg/stm32f10x_dbgmcu.o
 .debug_pubnames
                0x00001317       0xcf dbg/stm32f10x_dma.o
 .debug_pubnames
                0x000013e6       0xbb dbg/stm32f10x_exti.o
 .debug_pubnames
                0x000014a1      0x26e dbg/stm32f10x_flash.o
 .debug_pubnames
                0x0000170f      0x1a3 dbg/stm32f10x_fsmc.o
 .debug_pubnames
                0x000018b2      0x19d dbg/stm32f10x_gpio.o
 .debug_pubnames
                0x00001a4f      0x2b0 dbg/stm32f10x_i2c.o
 .debug_pubnames
                0x00001cff       0x91 dbg/stm32f10x_iwdg.o
 .debug_pubnames
                0x00001d90       0xcb dbg/stm32f10x_pwr.o
 .debug_pubnames
                0x00001e5b      0x37e dbg/stm32f10x_rcc.o
 .debug_pubnames
                0x000021d9      0x136 dbg/stm32f10x_rtc.o
 .debug_pubnames
                0x0000230f      0x2ac dbg/stm32f10x_sdio.o
 .debug_pubnames
                0x000025bb      0x1f6 dbg/stm32f10x_spi.o
 .debug_pubnames
                0x000027b1      0x7b0 dbg/stm32f10x_tim.o
 .debug_pubnames
                0x00002f61      0x25f dbg/stm32f10x_usart.o
 .debug_pubnames
                0x000031c0       0xb0 dbg/stm32f10x_wwdg.o
 .debug_pubnames
                0x00003270       0x9c ../../../../../ports/arm-cortex/qk/gnu/dbg\libqk_cortex-m3.a(qk.o)
 .debug_pubnames
                0x0000330c       0x23 ../../../../../ports/arm-cortex/qk/gnu/dbg\libqk_cortex-m3.a(qk_sched.o)
 .debug_pubnames
                0x0000332f       0x4a ../../../../../ports/arm-cortex/qk/gnu/dbg\libqk_cortex-m3.a(qk_mutex.o)
 .debug_pubnames
                0x00003379       0x27 ../../../../../ports/arm-cortex/qk/gnu/dbg\libqf_cortex-m3.a(qa_fifo.o)
 .debug_pubnames
                0x000033a0       0x39 ../../../../../ports/arm-cortex/qk/gnu/dbg\libqf_cortex-m3.a(qa_get_.o)
 .debug_pubnames
                0x000033d9       0x28 ../../../../../ports/arm-cortex/qk/gnu/dbg\libqf_cortex-m3.a(qa_sub.o)
 .debug_pubnames
                0x00003401       0x23 ../../../../../ports/arm-cortex/qk/gnu/dbg\libqf_cortex-m3.a(qeq_init.o)
 .debug_pubnames
                0x00003424       0x62 ../../../../../ports/arm-cortex/qk/gnu/dbg\libqf_cortex-m3.a(qf_act.o)
 .debug_pubnames
                0x00003486       0x1c ../../../../../ports/arm-cortex/qk/gnu/dbg\libqf_cortex-m3.a(qf_gc.o)
 .debug_pubnames
                0x000034a2       0x22 ../../../../../ports/arm-cortex/qk/gnu/dbg\libqf_cortex-m3.a(qf_log2.o)
 .debug_pubnames
                0x000034c4       0x1e ../../../../../ports/arm-cortex/qk/gnu/dbg\libqf_cortex-m3.a(qf_new.o)
 .debug_pubnames
                0x000034e2       0x3f ../../../../../ports/arm-cortex/qk/gnu/dbg\libqf_cortex-m3.a(qf_pool.o)
 .debug_pubnames
                0x00003521       0x45 ../../../../../ports/arm-cortex/qk/gnu/dbg\libqf_cortex-m3.a(qf_psini.o)
 .debug_pubnames
                0x00003566       0x21 ../../../../../ports/arm-cortex/qk/gnu/dbg\libqf_cortex-m3.a(qf_pspub.o)
 .debug_pubnames
                0x00003587       0x45 ../../../../../ports/arm-cortex/qk/gnu/dbg\libqf_cortex-m3.a(qf_pwr2.o)
 .debug_pubnames
                0x000035cc       0x1e ../../../../../ports/arm-cortex/qk/gnu/dbg\libqf_cortex-m3.a(qf_tick.o)
 .debug_pubnames
                0x000035ea       0x36 ../../../../../ports/arm-cortex/qk/gnu/dbg\libqf_cortex-m3.a(qmp_get.o)
 .debug_pubnames
                0x00003620       0x22 ../../../../../ports/arm-cortex/qk/gnu/dbg\libqf_cortex-m3.a(qmp_init.o)
 .debug_pubnames
                0x00003642       0x21 ../../../../../ports/arm-cortex/qk/gnu/dbg\libqf_cortex-m3.a(qmp_put.o)
 .debug_pubnames
                0x00003663       0x24 ../../../../../ports/arm-cortex/qk/gnu/dbg\libqf_cortex-m3.a(qte_ctor.o)
 .debug_pubnames
                0x00003687       0x3c ../../../../../ports/arm-cortex/qk/gnu/dbg\libqf_cortex-m3.a(qte_arm.o)
 .debug_pubnames
                0x000036c3       0x20 ../../../../../ports/arm-cortex/qk/gnu/dbg\libqep_cortex-m3.a(qhsm_ini.o)
 .debug_pubnames
                0x000036e3       0x24 ../../../../../ports/arm-cortex/qk/gnu/dbg\libqep_cortex-m3.a(qhsm_dis.o)
 .debug_pubnames
                0x00003707       0x1f ../../../../../ports/arm-cortex/qk/gnu/dbg\libqep_cortex-m3.a(qhsm_top.o)
 .debug_pubnames
                0x00003726       0x3a ../../../../../ports/arm-cortex/qk/gnu/dbg\libqep_cortex-m3.a(qep.o)

.debug_aranges  0x00000000      0x730
 .debug_aranges
                0x00000000       0x20 dbg/bsp.o
 .debug_aranges
                0x00000020       0x20 dbg/main.o
 .debug_aranges
                0x00000040       0x20 dbg/no_heap.o
 .debug_aranges
                0x00000060       0x20 dbg/philo.o
 .debug_aranges
                0x00000080       0x20 dbg/table.o
 .debug_aranges
                0x000000a0       0x20 dbg/startup_stm32f10x_cl.o
 .debug_aranges
                0x000000c0       0x20 dbg/core_cm3.o
 .debug_aranges
                0x000000e0       0x20 dbg/system_stm32f10x.o
 .debug_aranges
                0x00000100       0x20 dbg/stm32_eval.o
 .debug_aranges
                0x00000120       0x20 dbg/stm3210c_eval_lcd.o
 .debug_aranges
                0x00000140       0x20 dbg/stm3210c_eval_ioe.o
 .debug_aranges
                0x00000160       0x20 dbg/misc.o
 .debug_aranges
                0x00000180       0x20 dbg/stm32f10x_adc.o
 .debug_aranges
                0x000001a0       0x20 dbg/stm32f10x_bkp.o
 .debug_aranges
                0x000001c0       0x20 dbg/stm32f10x_can.o
 .debug_aranges
                0x000001e0       0x20 dbg/stm32f10x_crc.o
 .debug_aranges
                0x00000200       0x20 dbg/stm32f10x_dac.o
 .debug_aranges
                0x00000220       0x20 dbg/stm32f10x_dbgmcu.o
 .debug_aranges
                0x00000240       0x20 dbg/stm32f10x_dma.o
 .debug_aranges
                0x00000260       0x20 dbg/stm32f10x_exti.o
 .debug_aranges
                0x00000280       0x20 dbg/stm32f10x_flash.o
 .debug_aranges
                0x000002a0       0x20 dbg/stm32f10x_fsmc.o
 .debug_aranges
                0x000002c0       0x20 dbg/stm32f10x_gpio.o
 .debug_aranges
                0x000002e0       0x20 dbg/stm32f10x_i2c.o
 .debug_aranges
                0x00000300       0x20 dbg/stm32f10x_iwdg.o
 .debug_aranges
                0x00000320       0x20 dbg/stm32f10x_pwr.o
 .debug_aranges
                0x00000340       0x20 dbg/stm32f10x_rcc.o
 .debug_aranges
                0x00000360       0x20 dbg/stm32f10x_rtc.o
 .debug_aranges
                0x00000380       0x20 dbg/stm32f10x_sdio.o
 .debug_aranges
                0x000003a0       0x20 dbg/stm32f10x_spi.o
 .debug_aranges
                0x000003c0       0x20 dbg/stm32f10x_tim.o
 .debug_aranges
                0x000003e0       0x20 dbg/stm32f10x_usart.o
 .debug_aranges
                0x00000400       0x20 dbg/stm32f10x_wwdg.o
 .debug_aranges
                0x00000420       0x20 ../../../../../ports/arm-cortex/qk/gnu/dbg\libqk_cortex-m3.a(qk.o)
 .debug_aranges
                0x00000440       0x20 ../../../../../ports/arm-cortex/qk/gnu/dbg\libqk_cortex-m3.a(qk_sched.o)
 .debug_aranges
                0x00000460       0x20 ../../../../../ports/arm-cortex/qk/gnu/dbg\libqk_cortex-m3.a(qk_mutex.o)
 .debug_aranges
                0x00000480       0x30 ../../../../../ports/arm-cortex/qk/gnu/dbg\libqk_cortex-m3.a(qk_port.o)
 .debug_aranges
                0x000004b0       0x20 ../../../../../ports/arm-cortex/qk/gnu/dbg\libqf_cortex-m3.a(qa_fifo.o)
 .debug_aranges
                0x000004d0       0x20 ../../../../../ports/arm-cortex/qk/gnu/dbg\libqf_cortex-m3.a(qa_get_.o)
 .debug_aranges
                0x000004f0       0x20 ../../../../../ports/arm-cortex/qk/gnu/dbg\libqf_cortex-m3.a(qa_sub.o)
 .debug_aranges
                0x00000510       0x20 ../../../../../ports/arm-cortex/qk/gnu/dbg\libqf_cortex-m3.a(qeq_init.o)
 .debug_aranges
                0x00000530       0x20 ../../../../../ports/arm-cortex/qk/gnu/dbg\libqf_cortex-m3.a(qf_act.o)
 .debug_aranges
                0x00000550       0x20 ../../../../../ports/arm-cortex/qk/gnu/dbg\libqf_cortex-m3.a(qf_gc.o)
 .debug_aranges
                0x00000570       0x20 ../../../../../ports/arm-cortex/qk/gnu/dbg\libqf_cortex-m3.a(qf_new.o)
 .debug_aranges
                0x00000590       0x20 ../../../../../ports/arm-cortex/qk/gnu/dbg\libqf_cortex-m3.a(qf_pool.o)
 .debug_aranges
                0x000005b0       0x20 ../../../../../ports/arm-cortex/qk/gnu/dbg\libqf_cortex-m3.a(qf_psini.o)
 .debug_aranges
                0x000005d0       0x20 ../../../../../ports/arm-cortex/qk/gnu/dbg\libqf_cortex-m3.a(qf_pspub.o)
 .debug_aranges
                0x000005f0       0x20 ../../../../../ports/arm-cortex/qk/gnu/dbg\libqf_cortex-m3.a(qf_tick.o)
 .debug_aranges
                0x00000610       0x20 ../../../../../ports/arm-cortex/qk/gnu/dbg\libqf_cortex-m3.a(qmp_get.o)
 .debug_aranges
                0x00000630       0x20 ../../../../../ports/arm-cortex/qk/gnu/dbg\libqf_cortex-m3.a(qmp_init.o)
 .debug_aranges
                0x00000650       0x20 ../../../../../ports/arm-cortex/qk/gnu/dbg\libqf_cortex-m3.a(qmp_put.o)
 .debug_aranges
                0x00000670       0x20 ../../../../../ports/arm-cortex/qk/gnu/dbg\libqf_cortex-m3.a(qte_ctor.o)
 .debug_aranges
                0x00000690       0x20 ../../../../../ports/arm-cortex/qk/gnu/dbg\libqf_cortex-m3.a(qte_arm.o)
 .debug_aranges
                0x000006b0       0x20 ../../../../../ports/arm-cortex/qk/gnu/dbg\libqep_cortex-m3.a(qhsm_ini.o)
 .debug_aranges
                0x000006d0       0x20 ../../../../../ports/arm-cortex/qk/gnu/dbg\libqep_cortex-m3.a(qhsm_dis.o)
 .debug_aranges
                0x000006f0       0x20 ../../../../../ports/arm-cortex/qk/gnu/dbg\libqep_cortex-m3.a(qhsm_top.o)
 .debug_aranges
                0x00000710       0x20 ../../../../../ports/arm-cortex/qk/gnu/dbg\libqep_cortex-m3.a(qep.o)

.debug_str      0x00000000     0x5efc
 .debug_str     0x00000000      0x8c6 dbg/bsp.o
                                0x901 (size before relaxing)
 .debug_str     0x000008c6       0xf0 dbg/main.o
                                0x2bc (size before relaxing)
 .debug_str     0x000009b6       0x3a dbg/no_heap.o
                                0x120 (size before relaxing)
 .debug_str     0x000009f0       0xc7 dbg/philo.o
                                0x312 (size before relaxing)
 .debug_str     0x00000ab7       0x62 dbg/table.o
                                0x2a4 (size before relaxing)
 .debug_str     0x00000b19       0xcb dbg/startup_stm32f10x_cl.o
                                0x124 (size before relaxing)
 .debug_str     0x00000be4      0x14a dbg/core_cm3.o
                                0x229 (size before relaxing)
 .debug_str     0x00000d2e      0x102 dbg/system_stm32f10x.o
                                0x1e7 (size before relaxing)
 .debug_str     0x00000e30      0x424 dbg/stm32_eval.o
                                0xa4b (size before relaxing)
 .debug_str     0x00001254      0x35f dbg/stm3210c_eval_lcd.o
                                0x607 (size before relaxing)
 .debug_str     0x000015b3      0x40b dbg/stm3210c_eval_ioe.o
                                0xbfb (size before relaxing)
 .debug_str     0x000019be       0xe1 dbg/misc.o
                                0x2f5 (size before relaxing)
 .debug_str     0x00001a9f      0x51d dbg/stm32f10x_adc.o
                                0x64d (size before relaxing)
 .debug_str     0x00001fbc      0x373 dbg/stm32f10x_bkp.o
                                0x4fb (size before relaxing)
 .debug_str     0x0000232f      0x454 dbg/stm32f10x_can.o
                                0x5c3 (size before relaxing)
 .debug_str     0x00002783       0x93 dbg/stm32f10x_crc.o
                                0x181 (size before relaxing)
 .debug_str     0x00002816      0x1e9 dbg/stm32f10x_dac.o
                                0x2ed (size before relaxing)
 .debug_str     0x000029ff       0x64 dbg/stm32f10x_dbgmcu.o
                                0x14a (size before relaxing)
 .debug_str     0x00002a63      0x1c2 dbg/stm32f10x_dma.o
                                0x2dc (size before relaxing)
 .debug_str     0x00002c25       0xb8 dbg/stm32f10x_exti.o
                                0x2a3 (size before relaxing)
 .debug_str     0x00002cdd      0x35c dbg/stm32f10x_flash.o
                                0x4b0 (size before relaxing)
 .debug_str     0x00003039      0x53a dbg/stm32f10x_fsmc.o
                                0x657 (size before relaxing)
 .debug_str     0x00003573      0x1fb dbg/stm32f10x_gpio.o
                                0x44e (size before relaxing)
 .debug_str     0x0000376e      0x370 dbg/stm32f10x_i2c.o
                                0x590 (size before relaxing)
 .debug_str     0x00003ade       0xb0 dbg/stm32f10x_iwdg.o
                                0x1a1 (size before relaxing)
 .debug_str     0x00003b8e       0xf1 dbg/stm32f10x_pwr.o
                                0x201 (size before relaxing)
 .debug_str     0x00003c7f      0x494 dbg/stm32f10x_rcc.o
                                0x69f (size before relaxing)
 .debug_str     0x00004113      0x169 dbg/stm32f10x_rtc.o
                                0x2e0 (size before relaxing)
 .debug_str     0x0000427c      0x444 dbg/stm32f10x_sdio.o
                                0x580 (size before relaxing)
 .debug_str     0x000046c0      0x2a1 dbg/stm32f10x_spi.o
                                0x590 (size before relaxing)
 .debug_str     0x00004961      0xad7 dbg/stm32f10x_tim.o
                                0xd2f (size before relaxing)
 .debug_str     0x00005438      0x341 dbg/stm32f10x_usart.o
                                0x5b5 (size before relaxing)
 .debug_str     0x00005779       0xac dbg/stm32f10x_wwdg.o
                                0x1ad (size before relaxing)
 .debug_str     0x00005825       0xe0 ../../../../../ports/arm-cortex/qk/gnu/dbg\libqk_cortex-m3.a(qk.o)
                                0x240 (size before relaxing)
 .debug_str     0x00005905       0x55 ../../../../../ports/arm-cortex/qk/gnu/dbg\libqk_cortex-m3.a(qk_sched.o)
                                0x219 (size before relaxing)
 .debug_str     0x0000595a       0x56 ../../../../../ports/arm-cortex/qk/gnu/dbg\libqk_cortex-m3.a(qk_mutex.o)
                                0x10b (size before relaxing)
 .debug_str     0x000059b0       0x49 ../../../../../ports/arm-cortex/qk/gnu/dbg\libqf_cortex-m3.a(qa_fifo.o)
                                0x200 (size before relaxing)
 .debug_str     0x000059f9       0x55 ../../../../../ports/arm-cortex/qk/gnu/dbg\libqf_cortex-m3.a(qa_get_.o)
                                0x220 (size before relaxing)
 .debug_str     0x00005a4e       0x4e ../../../../../ports/arm-cortex/qk/gnu/dbg\libqf_cortex-m3.a(qa_sub.o)
                                0x23d (size before relaxing)
 .debug_str     0x00005a9c       0x2e ../../../../../ports/arm-cortex/qk/gnu/dbg\libqf_cortex-m3.a(qeq_init.o)
                                0x140 (size before relaxing)
 .debug_str     0x00005aca       0x50 ../../../../../ports/arm-cortex/qk/gnu/dbg\libqf_cortex-m3.a(qf_act.o)
                                0x1d1 (size before relaxing)
 .debug_str     0x00005b1a       0x6e ../../../../../ports/arm-cortex/qk/gnu/dbg\libqf_cortex-m3.a(qf_gc.o)
                                0x165 (size before relaxing)
 .debug_str     0x00005b88       0x20 ../../../../../ports/arm-cortex/qk/gnu/dbg\libqf_cortex-m3.a(qf_log2.o)
                                 0xd1 (size before relaxing)
 .debug_str     0x00005ba8       0x3a ../../../../../ports/arm-cortex/qk/gnu/dbg\libqf_cortex-m3.a(qf_new.o)
                                0x17b (size before relaxing)
 .debug_str     0x00005be2       0x3d ../../../../../ports/arm-cortex/qk/gnu/dbg\libqf_cortex-m3.a(qf_pool.o)
                                0x178 (size before relaxing)
 .debug_str     0x00005c1f       0x35 ../../../../../ports/arm-cortex/qk/gnu/dbg\libqf_cortex-m3.a(qf_psini.o)
                                0x129 (size before relaxing)
 .debug_str     0x00005c54       0x2c ../../../../../ports/arm-cortex/qk/gnu/dbg\libqf_cortex-m3.a(qf_pspub.o)
                                0x1fd (size before relaxing)
 .debug_str     0x00005c80       0x20 ../../../../../ports/arm-cortex/qk/gnu/dbg\libqf_cortex-m3.a(qf_pwr2.o)
                                 0xec (size before relaxing)
 .debug_str     0x00005ca0       0x42 ../../../../../ports/arm-cortex/qk/gnu/dbg\libqf_cortex-m3.a(qf_tick.o)
                                0x1dc (size before relaxing)
 .debug_str     0x00005ce2       0x5c ../../../../../ports/arm-cortex/qk/gnu/dbg\libqf_cortex-m3.a(qmp_get.o)
                                0x190 (size before relaxing)
 .debug_str     0x00005d3e       0x3a ../../../../../ports/arm-cortex/qk/gnu/dbg\libqf_cortex-m3.a(qmp_init.o)
                                0x174 (size before relaxing)
 .debug_str     0x00005d78       0x2b ../../../../../ports/arm-cortex/qk/gnu/dbg\libqf_cortex-m3.a(qmp_put.o)
                                0x140 (size before relaxing)
 .debug_str     0x00005da3       0x2f ../../../../../ports/arm-cortex/qk/gnu/dbg\libqf_cortex-m3.a(qte_ctor.o)
                                0x218 (size before relaxing)
 .debug_str     0x00005dd2       0x35 ../../../../../ports/arm-cortex/qk/gnu/dbg\libqf_cortex-m3.a(qte_arm.o)
                                0x232 (size before relaxing)
 .debug_str     0x00005e07       0x6e ../../../../../ports/arm-cortex/qk/gnu/dbg\libqep_cortex-m3.a(qhsm_ini.o)
                                0x1b3 (size before relaxing)
 .debug_str     0x00005e75       0x30 ../../../../../ports/arm-cortex/qk/gnu/dbg\libqep_cortex-m3.a(qhsm_dis.o)
                                0x1b7 (size before relaxing)
 .debug_str     0x00005ea5       0x2b ../../../../../ports/arm-cortex/qk/gnu/dbg\libqep_cortex-m3.a(qhsm_top.o)
                                0x11a (size before relaxing)
 .debug_str     0x00005ed0       0x2c ../../../../../ports/arm-cortex/qk/gnu/dbg\libqep_cortex-m3.a(qep.o)
                                0x17b (size before relaxing)

.debug_ranges   0x00000000       0x88
 .debug_ranges  0x00000000       0x18 ../../../../../ports/arm-cortex/qk/gnu/dbg\libqk_cortex-m3.a(qk_sched.o)
 .debug_ranges  0x00000018       0x28 ../../../../../ports/arm-cortex/qk/gnu/dbg\libqk_cortex-m3.a(qk_port.o)
 .debug_ranges  0x00000040       0x18 ../../../../../ports/arm-cortex/qk/gnu/dbg\libqf_cortex-m3.a(qf_pspub.o)
 .debug_ranges  0x00000058       0x18 ../../../../../ports/arm-cortex/qk/gnu/dbg\libqf_cortex-m3.a(qf_tick.o)
 .debug_ranges  0x00000070       0x18 ../../../../../ports/arm-cortex/qk/gnu/dbg\libqep_cortex-m3.a(qhsm_ini.o)

Cross Reference Table

Symbol                                            File
ADC1_2_IRQHandler                                 dbg/startup_stm32f10x_cl.o
ADC3_IRQHandler                                   dbg/startup_stm32f10x_cl.o
ADC_AnalogWatchdogCmd                             dbg/stm32f10x_adc.o
ADC_AnalogWatchdogSingleChannelConfig             dbg/stm32f10x_adc.o
ADC_AnalogWatchdogThresholdsConfig                dbg/stm32f10x_adc.o
ADC_AutoInjectedConvCmd                           dbg/stm32f10x_adc.o
ADC_ClearFlag                                     dbg/stm32f10x_adc.o
ADC_ClearITPendingBit                             dbg/stm32f10x_adc.o
ADC_Cmd                                           dbg/stm32f10x_adc.o
ADC_DMACmd                                        dbg/stm32f10x_adc.o
ADC_DeInit                                        dbg/stm32f10x_adc.o
ADC_DiscModeChannelCountConfig                    dbg/stm32f10x_adc.o
ADC_DiscModeCmd                                   dbg/stm32f10x_adc.o
ADC_ExternalTrigConvCmd                           dbg/stm32f10x_adc.o
ADC_ExternalTrigInjectedConvCmd                   dbg/stm32f10x_adc.o
ADC_ExternalTrigInjectedConvConfig                dbg/stm32f10x_adc.o
ADC_GetCalibrationStatus                          dbg/stm32f10x_adc.o
ADC_GetConversionValue                            dbg/stm32f10x_adc.o
ADC_GetDualModeConversionValue                    dbg/stm32f10x_adc.o
ADC_GetFlagStatus                                 dbg/stm32f10x_adc.o
ADC_GetITStatus                                   dbg/stm32f10x_adc.o
ADC_GetInjectedConversionValue                    dbg/stm32f10x_adc.o
ADC_GetResetCalibrationStatus                     dbg/stm32f10x_adc.o
ADC_GetSoftwareStartConvStatus                    dbg/stm32f10x_adc.o
ADC_GetSoftwareStartInjectedConvCmdStatus         dbg/stm32f10x_adc.o
ADC_ITConfig                                      dbg/stm32f10x_adc.o
ADC_Init                                          dbg/stm32f10x_adc.o
ADC_InjectedChannelConfig                         dbg/stm32f10x_adc.o
ADC_InjectedDiscModeCmd                           dbg/stm32f10x_adc.o
ADC_InjectedSequencerLengthConfig                 dbg/stm32f10x_adc.o
ADC_RegularChannelConfig                          dbg/stm32f10x_adc.o
ADC_ResetCalibration                              dbg/stm32f10x_adc.o
ADC_SetInjectedOffset                             dbg/stm32f10x_adc.o
ADC_SoftwareStartConvCmd                          dbg/stm32f10x_adc.o
ADC_SoftwareStartInjectedConvCmd                  dbg/stm32f10x_adc.o
ADC_StartCalibration                              dbg/stm32f10x_adc.o
ADC_StructInit                                    dbg/stm32f10x_adc.o
ADC_TempSensorVrefintCmd                          dbg/stm32f10x_adc.o
AO_Philo                                          dbg/philo.o
                                                  dbg/main.o
AO_Table                                          dbg/table.o
                                                  dbg/philo.o
                                                  dbg/main.o
                                                  dbg/bsp.o
ASCII_Table                                       dbg/stm3210c_eval_lcd.o
AddDevice                                         c:/tools/devkitpro/devkitarm/bin/../lib/gcc/arm-eabi/4.4.2/../../../../arm-eabi/lib/thumb/thumb2\libsysbase.a(iosupport.o)
BKP_ClearFlag                                     dbg/stm32f10x_bkp.o
BKP_ClearITPendingBit                             dbg/stm32f10x_bkp.o
BKP_DeInit                                        dbg/stm32f10x_bkp.o
BKP_GetFlagStatus                                 dbg/stm32f10x_bkp.o
BKP_GetITStatus                                   dbg/stm32f10x_bkp.o
BKP_ITConfig                                      dbg/stm32f10x_bkp.o
BKP_RTCOutputConfig                               dbg/stm32f10x_bkp.o
BKP_ReadBackupRegister                            dbg/stm32f10x_bkp.o
BKP_SetRTCCalibrationValue                        dbg/stm32f10x_bkp.o
BKP_TamperPinCmd                                  dbg/stm32f10x_bkp.o
BKP_TamperPinLevelConfig                          dbg/stm32f10x_bkp.o
BKP_WriteBackupRegister                           dbg/stm32f10x_bkp.o
BSP_busyDelay                                     dbg/bsp.o
                                                  dbg/table.o
                                                  dbg/philo.o
BSP_displyPhilStat                                dbg/bsp.o
                                                  dbg/table.o
BSP_init                                          dbg/bsp.o
                                                  dbg/main.o
BUTTON_CLK                                        dbg/stm32_eval.o
BUTTON_EXTI_LINE                                  dbg/stm32_eval.o
BUTTON_IRQn                                       dbg/stm32_eval.o
BUTTON_PIN                                        dbg/stm32_eval.o
BUTTON_PIN_SOURCE                                 dbg/stm32_eval.o
BUTTON_PORT                                       dbg/stm32_eval.o
BUTTON_PORT_SOURCE                                dbg/stm32_eval.o
BusFault_Handler                                  dbg/startup_stm32f10x_cl.o
CAN1_RX1_IRQHandler                               dbg/startup_stm32f10x_cl.o
CAN1_SCE_IRQHandler                               dbg/startup_stm32f10x_cl.o
CAN2_RX0_IRQHandler                               dbg/startup_stm32f10x_cl.o
CAN2_RX1_IRQHandler                               dbg/startup_stm32f10x_cl.o
CAN2_SCE_IRQHandler                               dbg/startup_stm32f10x_cl.o
CAN2_TX_IRQHandler                                dbg/startup_stm32f10x_cl.o
CAN_CancelTransmit                                dbg/stm32f10x_can.o
CAN_ClearFlag                                     dbg/stm32f10x_can.o
CAN_ClearITPendingBit                             dbg/stm32f10x_can.o
CAN_DBGFreeze                                     dbg/stm32f10x_can.o
CAN_DeInit                                        dbg/stm32f10x_can.o
CAN_FIFORelease                                   dbg/stm32f10x_can.o
CAN_FilterInit                                    dbg/stm32f10x_can.o
CAN_GetFlagStatus                                 dbg/stm32f10x_can.o
CAN_GetITStatus                                   dbg/stm32f10x_can.o
CAN_ITConfig                                      dbg/stm32f10x_can.o
CAN_Init                                          dbg/stm32f10x_can.o
CAN_MessagePending                                dbg/stm32f10x_can.o
CAN_Receive                                       dbg/stm32f10x_can.o
CAN_SlaveStartBank                                dbg/stm32f10x_can.o
CAN_Sleep                                         dbg/stm32f10x_can.o
CAN_StructInit                                    dbg/stm32f10x_can.o
CAN_Transmit                                      dbg/stm32f10x_can.o
CAN_TransmitStatus                                dbg/stm32f10x_can.o
CAN_WakeUp                                        dbg/stm32f10x_can.o
COM_PORT                                          dbg/stm32_eval.o
COM_POR_CLK                                       dbg/stm32_eval.o
COM_RX_PIN                                        dbg/stm32_eval.o
COM_TX_PIN                                        dbg/stm32_eval.o
COM_USART                                         dbg/stm32_eval.o
COM_USART_CLK                                     dbg/stm32_eval.o
CRC_CalcBlockCRC                                  dbg/stm32f10x_crc.o
CRC_CalcCRC                                       dbg/stm32f10x_crc.o
CRC_GetCRC                                        dbg/stm32f10x_crc.o
CRC_GetIDRegister                                 dbg/stm32f10x_crc.o
CRC_ResetDR                                       dbg/stm32f10x_crc.o
CRC_SetIDRegister                                 dbg/stm32f10x_crc.o
DAC_Cmd                                           dbg/stm32f10x_dac.o
DAC_DMACmd                                        dbg/stm32f10x_dac.o
DAC_DeInit                                        dbg/stm32f10x_dac.o
DAC_DualSoftwareTriggerCmd                        dbg/stm32f10x_dac.o
DAC_GetDataOutputValue                            dbg/stm32f10x_dac.o
DAC_Init                                          dbg/stm32f10x_dac.o
DAC_SetChannel1Data                               dbg/stm32f10x_dac.o
DAC_SetChannel2Data                               dbg/stm32f10x_dac.o
DAC_SetDualChannelData                            dbg/stm32f10x_dac.o
DAC_SoftwareTriggerCmd                            dbg/stm32f10x_dac.o
DAC_StructInit                                    dbg/stm32f10x_dac.o
DAC_WaveGenerationCmd                             dbg/stm32f10x_dac.o
DBGMCU_Config                                     dbg/stm32f10x_dbgmcu.o
DBGMCU_GetDEVID                                   dbg/stm32f10x_dbgmcu.o
DBGMCU_GetREVID                                   dbg/stm32f10x_dbgmcu.o
DMA1_Channel1_IRQHandler                          dbg/startup_stm32f10x_cl.o
DMA1_Channel2_IRQHandler                          dbg/startup_stm32f10x_cl.o
DMA1_Channel3_IRQHandler                          dbg/startup_stm32f10x_cl.o
DMA1_Channel4_IRQHandler                          dbg/startup_stm32f10x_cl.o
DMA1_Channel5_IRQHandler                          dbg/startup_stm32f10x_cl.o
DMA1_Channel6_IRQHandler                          dbg/startup_stm32f10x_cl.o
DMA1_Channel7_IRQHandler                          dbg/startup_stm32f10x_cl.o
DMA2_Channel1_IRQHandler                          dbg/startup_stm32f10x_cl.o
DMA2_Channel2_IRQHandler                          dbg/startup_stm32f10x_cl.o
DMA2_Channel3_IRQHandler                          dbg/startup_stm32f10x_cl.o
DMA2_Channel4_5_IRQHandler                        dbg/startup_stm32f10x_cl.o
DMA2_Channel5_IRQHandler                          dbg/startup_stm32f10x_cl.o
DMA_ClearFlag                                     dbg/stm32f10x_dma.o
DMA_ClearITPendingBit                             dbg/stm32f10x_dma.o
DMA_Cmd                                           dbg/stm32f10x_dma.o
DMA_DeInit                                        dbg/stm32f10x_dma.o
DMA_GetCurrDataCounter                            dbg/stm32f10x_dma.o
DMA_GetFlagStatus                                 dbg/stm32f10x_dma.o
DMA_GetITStatus                                   dbg/stm32f10x_dma.o
DMA_ITConfig                                      dbg/stm32f10x_dma.o
DMA_Init                                          dbg/stm32f10x_dma.o
DMA_StructInit                                    dbg/stm32f10x_dma.o
DebugMon_Handler                                  dbg/startup_stm32f10x_cl.o
ETH_IRQHandler                                    dbg/startup_stm32f10x_cl.o
ETH_WKUP_IRQHandler                               dbg/startup_stm32f10x_cl.o
EXTI0_IRQHandler                                  dbg/bsp.o
EXTI15_10_IRQHandler                              dbg/startup_stm32f10x_cl.o
EXTI1_IRQHandler                                  dbg/startup_stm32f10x_cl.o
EXTI2_IRQHandler                                  dbg/startup_stm32f10x_cl.o
EXTI3_IRQHandler                                  dbg/startup_stm32f10x_cl.o
EXTI4_IRQHandler                                  dbg/startup_stm32f10x_cl.o
EXTI9_5_IRQHandler                                dbg/startup_stm32f10x_cl.o
EXTI_ClearFlag                                    dbg/stm32f10x_exti.o
EXTI_ClearITPendingBit                            dbg/stm32f10x_exti.o
EXTI_DeInit                                       dbg/stm32f10x_exti.o
EXTI_GenerateSWInterrupt                          dbg/stm32f10x_exti.o
EXTI_GetFlagStatus                                dbg/stm32f10x_exti.o
EXTI_GetITStatus                                  dbg/stm32f10x_exti.o
EXTI_Init                                         dbg/stm32f10x_exti.o
                                                  dbg/stm3210c_eval_ioe.o
                                                  dbg/stm32_eval.o
                                                  dbg/bsp.o
EXTI_StructInit                                   dbg/stm32f10x_exti.o
FLASH_ClearFlag                                   dbg/stm32f10x_flash.o
FLASH_EnableWriteProtection                       dbg/stm32f10x_flash.o
FLASH_EraseAllPages                               dbg/stm32f10x_flash.o
FLASH_EraseOptionBytes                            dbg/stm32f10x_flash.o
FLASH_ErasePage                                   dbg/stm32f10x_flash.o
FLASH_GetFlagStatus                               dbg/stm32f10x_flash.o
FLASH_GetPrefetchBufferStatus                     dbg/stm32f10x_flash.o
FLASH_GetReadOutProtectionStatus                  dbg/stm32f10x_flash.o
FLASH_GetStatus                                   dbg/stm32f10x_flash.o
FLASH_GetUserOptionByte                           dbg/stm32f10x_flash.o
FLASH_GetWriteProtectionOptionByte                dbg/stm32f10x_flash.o
FLASH_HalfCycleAccessCmd                          dbg/stm32f10x_flash.o
FLASH_IRQHandler                                  dbg/startup_stm32f10x_cl.o
FLASH_ITConfig                                    dbg/stm32f10x_flash.o
FLASH_Lock                                        dbg/stm32f10x_flash.o
FLASH_PrefetchBufferCmd                           dbg/stm32f10x_flash.o
FLASH_ProgramHalfWord                             dbg/stm32f10x_flash.o
FLASH_ProgramOptionByteData                       dbg/stm32f10x_flash.o
FLASH_ProgramWord                                 dbg/stm32f10x_flash.o
FLASH_ReadOutProtection                           dbg/stm32f10x_flash.o
FLASH_SetLatency                                  dbg/stm32f10x_flash.o
FLASH_Unlock                                      dbg/stm32f10x_flash.o
FLASH_UserOptionByteConfig                        dbg/stm32f10x_flash.o
FLASH_WaitForLastOperation                        dbg/stm32f10x_flash.o
FSMC_ClearFlag                                    dbg/stm32f10x_fsmc.o
FSMC_ClearITPendingBit                            dbg/stm32f10x_fsmc.o
FSMC_GetECC                                       dbg/stm32f10x_fsmc.o
FSMC_GetFlagStatus                                dbg/stm32f10x_fsmc.o
FSMC_GetITStatus                                  dbg/stm32f10x_fsmc.o
FSMC_IRQHandler                                   dbg/startup_stm32f10x_cl.o
FSMC_ITConfig                                     dbg/stm32f10x_fsmc.o
FSMC_NANDCmd                                      dbg/stm32f10x_fsmc.o
FSMC_NANDDeInit                                   dbg/stm32f10x_fsmc.o
FSMC_NANDECCCmd                                   dbg/stm32f10x_fsmc.o
FSMC_NANDInit                                     dbg/stm32f10x_fsmc.o
FSMC_NANDStructInit                               dbg/stm32f10x_fsmc.o
FSMC_NORSRAMCmd                                   dbg/stm32f10x_fsmc.o
FSMC_NORSRAMDeInit                                dbg/stm32f10x_fsmc.o
FSMC_NORSRAMInit                                  dbg/stm32f10x_fsmc.o
FSMC_NORSRAMStructInit                            dbg/stm32f10x_fsmc.o
FSMC_PCCARDCmd                                    dbg/stm32f10x_fsmc.o
FSMC_PCCARDDeInit                                 dbg/stm32f10x_fsmc.o
FSMC_PCCARDInit                                   dbg/stm32f10x_fsmc.o
FSMC_PCCARDStructInit                             dbg/stm32f10x_fsmc.o
FindDevice                                        c:/tools/devkitpro/devkitarm/bin/../lib/gcc/arm-eabi/4.4.2/../../../../arm-eabi/lib/thumb/thumb2\libsysbase.a(iosupport.o)
GPIO_AFIODeInit                                   dbg/stm32f10x_gpio.o
GPIO_CLK                                          dbg/stm32_eval.o
GPIO_DeInit                                       dbg/stm32f10x_gpio.o
GPIO_ETH_MediaInterfaceConfig                     dbg/stm32f10x_gpio.o
GPIO_EXTILineConfig                               dbg/stm32f10x_gpio.o
                                                  dbg/stm3210c_eval_ioe.o
                                                  dbg/stm32_eval.o
GPIO_EventOutputCmd                               dbg/stm32f10x_gpio.o
GPIO_EventOutputConfig                            dbg/stm32f10x_gpio.o
GPIO_Init                                         dbg/stm32f10x_gpio.o
                                                  dbg/stm3210c_eval_ioe.o
                                                  dbg/stm3210c_eval_lcd.o
                                                  dbg/stm32_eval.o
GPIO_PIN                                          dbg/stm32_eval.o
GPIO_PORT                                         dbg/stm32_eval.o
GPIO_PinLockConfig                                dbg/stm32f10x_gpio.o
GPIO_PinRemapConfig                               dbg/stm32f10x_gpio.o
                                                  dbg/stm3210c_eval_lcd.o
                                                  dbg/stm32_eval.o
GPIO_ReadInputData                                dbg/stm32f10x_gpio.o
GPIO_ReadInputDataBit                             dbg/stm32f10x_gpio.o
                                                  dbg/stm32_eval.o
GPIO_ReadOutputData                               dbg/stm32f10x_gpio.o
GPIO_ReadOutputDataBit                            dbg/stm32f10x_gpio.o
GPIO_ResetBits                                    dbg/stm32f10x_gpio.o
GPIO_SetBits                                      dbg/stm32f10x_gpio.o
GPIO_StructInit                                   dbg/stm32f10x_gpio.o
GPIO_Write                                        dbg/stm32f10x_gpio.o
GPIO_WriteBit                                     dbg/stm32f10x_gpio.o
                                                  dbg/stm3210c_eval_lcd.o
GetDeviceOpTab                                    c:/tools/devkitpro/devkitarm/bin/../lib/gcc/arm-eabi/4.4.2/../../../../arm-eabi/lib/thumb/thumb2\libsysbase.a(iosupport.o)
HardFault_Handler                                 dbg/startup_stm32f10x_cl.o
I2C1_ER_IRQHandler                                dbg/startup_stm32f10x_cl.o
I2C1_EV_IRQHandler                                dbg/startup_stm32f10x_cl.o
I2C2_ER_IRQHandler                                dbg/startup_stm32f10x_cl.o
I2C2_EV_IRQHandler                                dbg/startup_stm32f10x_cl.o
I2C_ARPCmd                                        dbg/stm32f10x_i2c.o
I2C_AcknowledgeConfig                             dbg/stm32f10x_i2c.o
                                                  dbg/stm3210c_eval_ioe.o
I2C_CalculatePEC                                  dbg/stm32f10x_i2c.o
I2C_CheckEvent                                    dbg/stm32f10x_i2c.o
                                                  dbg/stm3210c_eval_ioe.o
I2C_ClearFlag                                     dbg/stm32f10x_i2c.o
I2C_ClearITPendingBit                             dbg/stm32f10x_i2c.o
I2C_Cmd                                           dbg/stm32f10x_i2c.o
                                                  dbg/stm3210c_eval_ioe.o
I2C_DMACmd                                        dbg/stm32f10x_i2c.o
I2C_DMALastTransferCmd                            dbg/stm32f10x_i2c.o
I2C_DeInit                                        dbg/stm32f10x_i2c.o
I2C_DualAddressCmd                                dbg/stm32f10x_i2c.o
I2C_FastModeDutyCycleConfig                       dbg/stm32f10x_i2c.o
I2C_GeneralCallCmd                                dbg/stm32f10x_i2c.o
I2C_GenerateSTART                                 dbg/stm32f10x_i2c.o
                                                  dbg/stm3210c_eval_ioe.o
I2C_GenerateSTOP                                  dbg/stm32f10x_i2c.o
                                                  dbg/stm3210c_eval_ioe.o
I2C_GetFlagStatus                                 dbg/stm32f10x_i2c.o
I2C_GetITStatus                                   dbg/stm32f10x_i2c.o
I2C_GetLastEvent                                  dbg/stm32f10x_i2c.o
I2C_GetPEC                                        dbg/stm32f10x_i2c.o
I2C_ITConfig                                      dbg/stm32f10x_i2c.o
I2C_Init                                          dbg/stm32f10x_i2c.o
                                                  dbg/stm3210c_eval_ioe.o
I2C_OwnAddress2Config                             dbg/stm32f10x_i2c.o
I2C_PECPositionConfig                             dbg/stm32f10x_i2c.o
I2C_ReadDataBuffer                                dbg/stm3210c_eval_ioe.o
I2C_ReadDeviceRegister                            dbg/stm3210c_eval_ioe.o
I2C_ReadRegister                                  dbg/stm32f10x_i2c.o
I2C_ReceiveData                                   dbg/stm32f10x_i2c.o
                                                  dbg/stm3210c_eval_ioe.o
I2C_SMBusAlertConfig                              dbg/stm32f10x_i2c.o
I2C_Send7bitAddress                               dbg/stm32f10x_i2c.o
                                                  dbg/stm3210c_eval_ioe.o
I2C_SendData                                      dbg/stm32f10x_i2c.o
                                                  dbg/stm3210c_eval_ioe.o
I2C_SoftwareResetCmd                              dbg/stm32f10x_i2c.o
                                                  dbg/stm3210c_eval_ioe.o
I2C_StretchClockCmd                               dbg/stm32f10x_i2c.o
I2C_StructInit                                    dbg/stm32f10x_i2c.o
I2C_TransmitPEC                                   dbg/stm32f10x_i2c.o
I2C_WriteDeviceRegister                           dbg/stm3210c_eval_ioe.o
I2S_Cmd                                           dbg/stm32f10x_spi.o
I2S_Init                                          dbg/stm32f10x_spi.o
I2S_StructInit                                    dbg/stm32f10x_spi.o
IOE_ClearGITPending                               dbg/stm3210c_eval_ioe.o
IOE_ClearIOITPending                              dbg/stm3210c_eval_ioe.o
IOE_Config                                        dbg/stm3210c_eval_ioe.o
IOE_FnctCmd                                       dbg/stm3210c_eval_ioe.o
IOE_GITCmd                                        dbg/stm3210c_eval_ioe.o
IOE_GITConfig                                     dbg/stm3210c_eval_ioe.o
IOE_GetGITStatus                                  dbg/stm3210c_eval_ioe.o
IOE_GetIOITStatus                                 dbg/stm3210c_eval_ioe.o
IOE_IOAFConfig                                    dbg/stm3210c_eval_ioe.o
IOE_IOEdgeConfig                                  dbg/stm3210c_eval_ioe.o
IOE_IOITConfig                                    dbg/stm3210c_eval_ioe.o
IOE_IOPinConfig                                   dbg/stm3210c_eval_ioe.o
IOE_ITConfig                                      dbg/stm3210c_eval_ioe.o
IOE_ITOutConfig                                   dbg/stm3210c_eval_ioe.o
IOE_IsOperational                                 dbg/stm3210c_eval_ioe.o
IOE_JoyStickGetState                              dbg/stm3210c_eval_ioe.o
IOE_ReadID                                        dbg/stm3210c_eval_ioe.o
IOE_ReadIOPin                                     dbg/stm3210c_eval_ioe.o
IOE_Reset                                         dbg/stm3210c_eval_ioe.o
IOE_TS_Config                                     dbg/stm3210c_eval_ioe.o
IOE_TS_GetState                                   dbg/stm3210c_eval_ioe.o
IOE_TempSens_Config                               dbg/stm3210c_eval_ioe.o
IOE_TempSens_GetData                              dbg/stm3210c_eval_ioe.o
IOE_WriteIOPin                                    dbg/stm3210c_eval_ioe.o
IWDG_Enable                                       dbg/stm32f10x_iwdg.o
IWDG_GetFlagStatus                                dbg/stm32f10x_iwdg.o
IWDG_ReloadCounter                                dbg/stm32f10x_iwdg.o
IWDG_SetPrescaler                                 dbg/stm32f10x_iwdg.o
IWDG_SetReload                                    dbg/stm32f10x_iwdg.o
IWDG_WriteAccessCmd                               dbg/stm32f10x_iwdg.o
LCD_Clear                                         dbg/stm3210c_eval_lcd.o
                                                  dbg/bsp.o
LCD_ClearLine                                     dbg/stm3210c_eval_lcd.o
LCD_CtrlLinesConfig                               dbg/stm3210c_eval_lcd.o
LCD_CtrlLinesWrite                                dbg/stm3210c_eval_lcd.o
LCD_DisplayChar                                   dbg/stm3210c_eval_lcd.o
                                                  dbg/bsp.o
LCD_DisplayOff                                    dbg/stm3210c_eval_lcd.o
LCD_DisplayOn                                     dbg/stm3210c_eval_lcd.o
LCD_DisplayString                                 dbg/stm3210c_eval_lcd.o
                                                  dbg/bsp.o
LCD_DrawChar                                      dbg/stm3210c_eval_lcd.o
LCD_DrawCircle                                    dbg/stm3210c_eval_lcd.o
LCD_DrawLine                                      dbg/stm3210c_eval_lcd.o
LCD_DrawMonoPict                                  dbg/stm3210c_eval_lcd.o
LCD_DrawRect                                      dbg/stm3210c_eval_lcd.o
LCD_PowerOn                                       dbg/stm3210c_eval_lcd.o
LCD_ReadReg                                       dbg/stm3210c_eval_lcd.o
LCD_SPIConfig                                     dbg/stm3210c_eval_lcd.o
LCD_SetBackColor                                  dbg/stm3210c_eval_lcd.o
                                                  dbg/bsp.o
LCD_SetCursor                                     dbg/stm3210c_eval_lcd.o
LCD_SetDisplayWindow                              dbg/stm3210c_eval_lcd.o
LCD_SetTextColor                                  dbg/stm3210c_eval_lcd.o
                                                  dbg/bsp.o
LCD_Setup                                         dbg/stm3210c_eval_lcd.o
LCD_WindowModeDisable                             dbg/stm3210c_eval_lcd.o
LCD_WriteRAM                                      dbg/stm3210c_eval_lcd.o
LCD_WriteRAMWord                                  dbg/stm3210c_eval_lcd.o
LCD_WriteRAM_Prepare                              dbg/stm3210c_eval_lcd.o
LCD_WriteReg                                      dbg/stm3210c_eval_lcd.o
LCD_WriteRegIndex                                 dbg/stm3210c_eval_lcd.o
LCD_nCS_StartByte                                 dbg/stm3210c_eval_lcd.o
MemManage_Handler                                 dbg/startup_stm32f10x_cl.o
NMI_Handler                                       dbg/startup_stm32f10x_cl.o
NVIC_Init                                         dbg/misc.o
                                                  dbg/stm3210c_eval_ioe.o
                                                  dbg/stm32_eval.o
                                                  dbg/bsp.o
NVIC_PriorityGroupConfig                          dbg/misc.o
NVIC_SetVectorTable                               dbg/misc.o
NVIC_SystemLPConfig                               dbg/misc.o
OTG_FS_IRQHandler                                 dbg/startup_stm32f10x_cl.o
PVD_IRQHandler                                    dbg/startup_stm32f10x_cl.o
PWR_BackupAccessCmd                               dbg/stm32f10x_pwr.o
PWR_ClearFlag                                     dbg/stm32f10x_pwr.o
PWR_DeInit                                        dbg/stm32f10x_pwr.o
PWR_EnterSTANDBYMode                              dbg/stm32f10x_pwr.o
PWR_EnterSTOPMode                                 dbg/stm32f10x_pwr.o
PWR_GetFlagStatus                                 dbg/stm32f10x_pwr.o
PWR_PVDCmd                                        dbg/stm32f10x_pwr.o
PWR_PVDLevelConfig                                dbg/stm32f10x_pwr.o
PWR_WakeUpPinCmd                                  dbg/stm32f10x_pwr.o
PendSV_Handler                                    ../../../../../ports/arm-cortex/qk/gnu/dbg\libqk_cortex-m3.a(qk_port.o)
                                                  dbg/startup_stm32f10x_cl.o
Philo_ctor                                        dbg/philo.o
                                                  dbg/main.o
QActive_get_                                      ../../../../../ports/arm-cortex/qk/gnu/dbg\libqf_cortex-m3.a(qa_get_.o)
                                                  ../../../../../ports/arm-cortex/qk/gnu/dbg\libqk_cortex-m3.a(qk_sched.o)
QActive_postFIFO                                  ../../../../../ports/arm-cortex/qk/gnu/dbg\libqf_cortex-m3.a(qa_fifo.o)
                                                  ../../../../../ports/arm-cortex/qk/gnu/dbg\libqf_cortex-m3.a(qf_tick.o)
                                                  ../../../../../ports/arm-cortex/qk/gnu/dbg\libqf_cortex-m3.a(qf_pspub.o)
                                                  dbg/philo.o
                                                  dbg/bsp.o
QActive_start                                     ../../../../../ports/arm-cortex/qk/gnu/dbg\libqk_cortex-m3.a(qk.o)
                                                  dbg/main.o
QActive_stop                                      ../../../../../ports/arm-cortex/qk/gnu/dbg\libqk_cortex-m3.a(qk.o)
QActive_subscribe                                 ../../../../../ports/arm-cortex/qk/gnu/dbg\libqf_cortex-m3.a(qa_sub.o)
                                                  dbg/table.o
                                                  dbg/philo.o
QEP_getVersion                                    ../../../../../ports/arm-cortex/qk/gnu/dbg\libqep_cortex-m3.a(qep.o)
QEP_reservedEvt_                                  ../../../../../ports/arm-cortex/qk/gnu/dbg\libqep_cortex-m3.a(qep.o)
                                                  ../../../../../ports/arm-cortex/qk/gnu/dbg\libqep_cortex-m3.a(qhsm_dis.o)
                                                  ../../../../../ports/arm-cortex/qk/gnu/dbg\libqep_cortex-m3.a(qhsm_ini.o)
QEQueue_init                                      ../../../../../ports/arm-cortex/qk/gnu/dbg\libqf_cortex-m3.a(qeq_init.o)
                                                  ../../../../../ports/arm-cortex/qk/gnu/dbg\libqk_cortex-m3.a(qk.o)
QF_active_                                        ../../../../../ports/arm-cortex/qk/gnu/dbg\libqf_cortex-m3.a(qf_pspub.o)
                                                  ../../../../../ports/arm-cortex/qk/gnu/dbg\libqf_cortex-m3.a(qf_act.o)
                                                  ../../../../../ports/arm-cortex/qk/gnu/dbg\libqf_cortex-m3.a(qa_sub.o)
                                                  ../../../../../ports/arm-cortex/qk/gnu/dbg\libqf_cortex-m3.a(qa_get_.o)
                                                  ../../../../../ports/arm-cortex/qk/gnu/dbg\libqk_cortex-m3.a(qk_sched.o)
QF_add_                                           ../../../../../ports/arm-cortex/qk/gnu/dbg\libqf_cortex-m3.a(qf_act.o)
                                                  ../../../../../ports/arm-cortex/qk/gnu/dbg\libqk_cortex-m3.a(qk.o)
QF_div8Lkup                                       ../../../../../ports/arm-cortex/qk/gnu/dbg\libqf_cortex-m3.a(qf_pwr2.o)
                                                  ../../../../../ports/arm-cortex/qk/gnu/dbg\libqf_cortex-m3.a(qa_sub.o)
                                                  ../../../../../ports/arm-cortex/qk/gnu/dbg\libqf_cortex-m3.a(qa_get_.o)
                                                  ../../../../../ports/arm-cortex/qk/gnu/dbg\libqf_cortex-m3.a(qa_fifo.o)
QF_gc                                             ../../../../../ports/arm-cortex/qk/gnu/dbg\libqf_cortex-m3.a(qf_gc.o)
                                                  ../../../../../ports/arm-cortex/qk/gnu/dbg\libqf_cortex-m3.a(qf_pspub.o)
                                                  ../../../../../ports/arm-cortex/qk/gnu/dbg\libqk_cortex-m3.a(qk_sched.o)
QF_getPoolMargin                                  ../../../../../ports/arm-cortex/qk/gnu/dbg\libqf_cortex-m3.a(qmp_get.o)
QF_getQueueMargin                                 ../../../../../ports/arm-cortex/qk/gnu/dbg\libqf_cortex-m3.a(qa_get_.o)
QF_getVersion                                     ../../../../../ports/arm-cortex/qk/gnu/dbg\libqf_cortex-m3.a(qf_act.o)
                                                  dbg/bsp.o
QF_init                                           ../../../../../ports/arm-cortex/qk/gnu/dbg\libqk_cortex-m3.a(qk.o)
                                                  dbg/main.o
QF_intLockNest_                                   ../../../../../ports/arm-cortex/qk/gnu/dbg\libqf_cortex-m3.a(qf_act.o)
QF_invPwr2Lkup                                    ../../../../../ports/arm-cortex/qk/gnu/dbg\libqf_cortex-m3.a(qf_pwr2.o)
                                                  ../../../../../ports/arm-cortex/qk/gnu/dbg\libqf_cortex-m3.a(qf_pspub.o)
                                                  ../../../../../ports/arm-cortex/qk/gnu/dbg\libqf_cortex-m3.a(qa_get_.o)
QF_log2Lkup                                       ../../../../../ports/arm-cortex/qk/gnu/dbg\libqf_cortex-m3.a(qf_log2.o)
                                                  ../../../../../ports/arm-cortex/qk/gnu/dbg\libqf_cortex-m3.a(qf_pspub.o)
                                                  ../../../../../ports/arm-cortex/qk/gnu/dbg\libqk_cortex-m3.a(qk_sched.o)
QF_maxPool_                                       ../../../../../ports/arm-cortex/qk/gnu/dbg\libqf_cortex-m3.a(qmp_get.o)
                                                  ../../../../../ports/arm-cortex/qk/gnu/dbg\libqf_cortex-m3.a(qf_pool.o)
                                                  ../../../../../ports/arm-cortex/qk/gnu/dbg\libqf_cortex-m3.a(qf_new.o)
                                                  ../../../../../ports/arm-cortex/qk/gnu/dbg\libqf_cortex-m3.a(qf_gc.o)
QF_maxSignal_                                     ../../../../../ports/arm-cortex/qk/gnu/dbg\libqf_cortex-m3.a(qf_pspub.o)
                                                  ../../../../../ports/arm-cortex/qk/gnu/dbg\libqf_cortex-m3.a(qf_psini.o)
                                                  ../../../../../ports/arm-cortex/qk/gnu/dbg\libqf_cortex-m3.a(qa_sub.o)
QF_new_                                           ../../../../../ports/arm-cortex/qk/gnu/dbg\libqf_cortex-m3.a(qf_new.o)
                                                  dbg/table.o
                                                  dbg/philo.o
                                                  dbg/bsp.o
QF_onCleanup                                      dbg/bsp.o
                                                  ../../../../../ports/arm-cortex/qk/gnu/dbg\libqk_cortex-m3.a(qk.o)
QF_onStartup                                      dbg/bsp.o
                                                  ../../../../../ports/arm-cortex/qk/gnu/dbg\libqk_cortex-m3.a(qk.o)
QF_poolInit                                       ../../../../../ports/arm-cortex/qk/gnu/dbg\libqf_cortex-m3.a(qf_pool.o)
                                                  dbg/main.o
QF_pool_                                          ../../../../../ports/arm-cortex/qk/gnu/dbg\libqf_cortex-m3.a(qmp_get.o)
                                                  ../../../../../ports/arm-cortex/qk/gnu/dbg\libqf_cortex-m3.a(qf_pool.o)
                                                  ../../../../../ports/arm-cortex/qk/gnu/dbg\libqf_cortex-m3.a(qf_new.o)
                                                  ../../../../../ports/arm-cortex/qk/gnu/dbg\libqf_cortex-m3.a(qf_gc.o)
QF_psInit                                         ../../../../../ports/arm-cortex/qk/gnu/dbg\libqf_cortex-m3.a(qf_psini.o)
                                                  dbg/main.o
QF_publish                                        ../../../../../ports/arm-cortex/qk/gnu/dbg\libqf_cortex-m3.a(qf_pspub.o)
                                                  dbg/table.o
                                                  dbg/philo.o
QF_pwr2Lkup                                       ../../../../../ports/arm-cortex/qk/gnu/dbg\libqf_cortex-m3.a(qf_pwr2.o)
                                                  ../../../../../ports/arm-cortex/qk/gnu/dbg\libqf_cortex-m3.a(qa_sub.o)
                                                  ../../../../../ports/arm-cortex/qk/gnu/dbg\libqf_cortex-m3.a(qa_fifo.o)
QF_remove_                                        ../../../../../ports/arm-cortex/qk/gnu/dbg\libqf_cortex-m3.a(qf_act.o)
                                                  ../../../../../ports/arm-cortex/qk/gnu/dbg\libqk_cortex-m3.a(qk.o)
QF_run                                            ../../../../../ports/arm-cortex/qk/gnu/dbg\libqk_cortex-m3.a(qk.o)
                                                  dbg/main.o
QF_stop                                           ../../../../../ports/arm-cortex/qk/gnu/dbg\libqk_cortex-m3.a(qk.o)
                                                  dbg/table.o
QF_subscrList_                                    ../../../../../ports/arm-cortex/qk/gnu/dbg\libqf_cortex-m3.a(qf_pspub.o)
                                                  ../../../../../ports/arm-cortex/qk/gnu/dbg\libqf_cortex-m3.a(qf_psini.o)
                                                  ../../../../../ports/arm-cortex/qk/gnu/dbg\libqf_cortex-m3.a(qa_sub.o)
QF_tick                                           ../../../../../ports/arm-cortex/qk/gnu/dbg\libqf_cortex-m3.a(qf_tick.o)
                                                  dbg/bsp.o
QF_timeEvtListHead_                               ../../../../../ports/arm-cortex/qk/gnu/dbg\libqf_cortex-m3.a(qte_arm.o)
                                                  ../../../../../ports/arm-cortex/qk/gnu/dbg\libqf_cortex-m3.a(qf_tick.o)
QHsm_dispatch                                     ../../../../../ports/arm-cortex/qk/gnu/dbg\libqep_cortex-m3.a(qhsm_dis.o)
                                                  ../../../../../ports/arm-cortex/qk/gnu/dbg\libqk_cortex-m3.a(qk_sched.o)
QHsm_init                                         ../../../../../ports/arm-cortex/qk/gnu/dbg\libqep_cortex-m3.a(qhsm_ini.o)
                                                  ../../../../../ports/arm-cortex/qk/gnu/dbg\libqk_cortex-m3.a(qk.o)
QHsm_top                                          ../../../../../ports/arm-cortex/qk/gnu/dbg\libqep_cortex-m3.a(qhsm_top.o)
                                                  ../../../../../ports/arm-cortex/qk/gnu/dbg\libqep_cortex-m3.a(qhsm_ini.o)
                                                  dbg/table.o
                                                  dbg/philo.o
QK_ceilingPrio_                                   ../../../../../ports/arm-cortex/qk/gnu/dbg\libqk_cortex-m3.a(qk_mutex.o)
                                                  ../../../../../ports/arm-cortex/qk/gnu/dbg\libqk_cortex-m3.a(qk_sched.o)
QK_currPrio_                                      ../../../../../ports/arm-cortex/qk/gnu/dbg\libqk_cortex-m3.a(qk.o)
                                                  ../../../../../ports/arm-cortex/qk/gnu/dbg\libqk_cortex-m3.a(qk_sched.o)
QK_getVersion                                     ../../../../../ports/arm-cortex/qk/gnu/dbg\libqk_cortex-m3.a(qk.o)
QK_init                                           ../../../../../ports/arm-cortex/qk/gnu/dbg\libqk_cortex-m3.a(qk_port.o)
                                                  ../../../../../ports/arm-cortex/qk/gnu/dbg\libqk_cortex-m3.a(qk.o)
QK_intNest_                                       ../../../../../ports/arm-cortex/qk/gnu/dbg\libqf_cortex-m3.a(qa_fifo.o)
                                                  ../../../../../ports/arm-cortex/qk/gnu/dbg\libqk_cortex-m3.a(qk_sched.o)
                                                  ../../../../../ports/arm-cortex/qk/gnu/dbg\libqk_cortex-m3.a(qk.o)
                                                  dbg/bsp.o
QK_mutexLock                                      ../../../../../ports/arm-cortex/qk/gnu/dbg\libqk_cortex-m3.a(qk_mutex.o)
QK_mutexUnlock                                    ../../../../../ports/arm-cortex/qk/gnu/dbg\libqk_cortex-m3.a(qk_mutex.o)
QK_onIdle                                         dbg/bsp.o
                                                  ../../../../../ports/arm-cortex/qk/gnu/dbg\libqk_cortex-m3.a(qk.o)
QK_readySet_                                      ../../../../../ports/arm-cortex/qk/gnu/dbg\libqf_cortex-m3.a(qa_get_.o)
                                                  ../../../../../ports/arm-cortex/qk/gnu/dbg\libqf_cortex-m3.a(qa_fifo.o)
                                                  ../../../../../ports/arm-cortex/qk/gnu/dbg\libqk_cortex-m3.a(qk_port.o)
                                                  ../../../../../ports/arm-cortex/qk/gnu/dbg\libqk_cortex-m3.a(qk_sched.o)
                                                  ../../../../../ports/arm-cortex/qk/gnu/dbg\libqk_cortex-m3.a(qk.o)
QK_schedule_                                      ../../../../../ports/arm-cortex/qk/gnu/dbg\libqk_cortex-m3.a(qk_sched.o)
                                                  ../../../../../ports/arm-cortex/qk/gnu/dbg\libqf_cortex-m3.a(qa_fifo.o)
                                                  ../../../../../ports/arm-cortex/qk/gnu/dbg\libqk_cortex-m3.a(qk_port.o)
                                                  ../../../../../ports/arm-cortex/qk/gnu/dbg\libqk_cortex-m3.a(qk_mutex.o)
                                                  ../../../../../ports/arm-cortex/qk/gnu/dbg\libqk_cortex-m3.a(qk.o)
QMPool_get                                        ../../../../../ports/arm-cortex/qk/gnu/dbg\libqf_cortex-m3.a(qmp_get.o)
                                                  ../../../../../ports/arm-cortex/qk/gnu/dbg\libqf_cortex-m3.a(qf_new.o)
QMPool_init                                       ../../../../../ports/arm-cortex/qk/gnu/dbg\libqf_cortex-m3.a(qmp_init.o)
                                                  ../../../../../ports/arm-cortex/qk/gnu/dbg\libqf_cortex-m3.a(qf_pool.o)
QMPool_put                                        ../../../../../ports/arm-cortex/qk/gnu/dbg\libqf_cortex-m3.a(qmp_put.o)
                                                  ../../../../../ports/arm-cortex/qk/gnu/dbg\libqf_cortex-m3.a(qf_gc.o)
QTimeEvt_arm_                                     ../../../../../ports/arm-cortex/qk/gnu/dbg\libqf_cortex-m3.a(qte_arm.o)
                                                  dbg/philo.o
QTimeEvt_ctor                                     ../../../../../ports/arm-cortex/qk/gnu/dbg\libqf_cortex-m3.a(qte_ctor.o)
                                                  dbg/philo.o
Q_onAssert                                        dbg/bsp.o
                                                  ../../../../../ports/arm-cortex/qk/gnu/dbg\libqep_cortex-m3.a(qhsm_dis.o)
                                                  ../../../../../ports/arm-cortex/qk/gnu/dbg\libqep_cortex-m3.a(qhsm_ini.o)
                                                  ../../../../../ports/arm-cortex/qk/gnu/dbg\libqf_cortex-m3.a(qte_arm.o)
                                                  ../../../../../ports/arm-cortex/qk/gnu/dbg\libqf_cortex-m3.a(qte_ctor.o)
                                                  ../../../../../ports/arm-cortex/qk/gnu/dbg\libqf_cortex-m3.a(qmp_put.o)
                                                  ../../../../../ports/arm-cortex/qk/gnu/dbg\libqf_cortex-m3.a(qmp_init.o)
                                                  ../../../../../ports/arm-cortex/qk/gnu/dbg\libqf_cortex-m3.a(qmp_get.o)
                                                  ../../../../../ports/arm-cortex/qk/gnu/dbg\libqf_cortex-m3.a(qf_pspub.o)
                                                  ../../../../../ports/arm-cortex/qk/gnu/dbg\libqf_cortex-m3.a(qf_pool.o)
                                                  ../../../../../ports/arm-cortex/qk/gnu/dbg\libqf_cortex-m3.a(qf_new.o)
                                                  ../../../../../ports/arm-cortex/qk/gnu/dbg\libqf_cortex-m3.a(qf_gc.o)
                                                  ../../../../../ports/arm-cortex/qk/gnu/dbg\libqf_cortex-m3.a(qf_act.o)
                                                  ../../../../../ports/arm-cortex/qk/gnu/dbg\libqf_cortex-m3.a(qa_sub.o)
                                                  ../../../../../ports/arm-cortex/qk/gnu/dbg\libqf_cortex-m3.a(qa_get_.o)
                                                  ../../../../../ports/arm-cortex/qk/gnu/dbg\libqf_cortex-m3.a(qa_fifo.o)
                                                  ../../../../../ports/arm-cortex/qk/gnu/dbg\libqk_cortex-m3.a(qk_sched.o)
                                                  ../../../../../ports/arm-cortex/qk/gnu/dbg\libqk_cortex-m3.a(qk.o)
                                                  dbg/table.o
                                                  dbg/philo.o
                                                  dbg/no_heap.o
RCC_ADCCLKConfig                                  dbg/stm32f10x_rcc.o
RCC_AHBPeriphClockCmd                             dbg/stm32f10x_rcc.o
RCC_AHBPeriphResetCmd                             dbg/stm32f10x_rcc.o
RCC_APB1PeriphClockCmd                            dbg/stm32f10x_rcc.o
                                                  dbg/stm3210c_eval_ioe.o
                                                  dbg/stm3210c_eval_lcd.o
                                                  dbg/stm32_eval.o
RCC_APB1PeriphResetCmd                            dbg/stm32f10x_rcc.o
                                                  dbg/stm32f10x_wwdg.o
                                                  dbg/stm32f10x_usart.o
                                                  dbg/stm32f10x_tim.o
                                                  dbg/stm32f10x_spi.o
                                                  dbg/stm32f10x_pwr.o
                                                  dbg/stm32f10x_i2c.o
                                                  dbg/stm32f10x_dac.o
                                                  dbg/stm32f10x_can.o
                                                  dbg/stm3210c_eval_ioe.o
RCC_APB2PeriphClockCmd                            dbg/stm32f10x_rcc.o
                                                  dbg/stm3210c_eval_ioe.o
                                                  dbg/stm3210c_eval_lcd.o
                                                  dbg/stm32_eval.o
RCC_APB2PeriphResetCmd                            dbg/stm32f10x_rcc.o
                                                  dbg/stm32f10x_usart.o
                                                  dbg/stm32f10x_tim.o
                                                  dbg/stm32f10x_spi.o
                                                  dbg/stm32f10x_gpio.o
                                                  dbg/stm32f10x_adc.o
RCC_AdjustHSICalibrationValue                     dbg/stm32f10x_rcc.o
RCC_BackupResetCmd                                dbg/stm32f10x_rcc.o
                                                  dbg/stm32f10x_bkp.o
RCC_ClearFlag                                     dbg/stm32f10x_rcc.o
RCC_ClearITPendingBit                             dbg/stm32f10x_rcc.o
RCC_ClockSecuritySystemCmd                        dbg/stm32f10x_rcc.o
RCC_DeInit                                        dbg/stm32f10x_rcc.o
RCC_GetClocksFreq                                 dbg/stm32f10x_rcc.o
                                                  dbg/stm32f10x_usart.o
                                                  dbg/stm32f10x_spi.o
                                                  dbg/stm32f10x_i2c.o
RCC_GetFlagStatus                                 dbg/stm32f10x_rcc.o
RCC_GetITStatus                                   dbg/stm32f10x_rcc.o
RCC_GetSYSCLKSource                               dbg/stm32f10x_rcc.o
RCC_HCLKConfig                                    dbg/stm32f10x_rcc.o
RCC_HSEConfig                                     dbg/stm32f10x_rcc.o
RCC_HSICmd                                        dbg/stm32f10x_rcc.o
RCC_I2S2CLKConfig                                 dbg/stm32f10x_rcc.o
RCC_I2S3CLKConfig                                 dbg/stm32f10x_rcc.o
RCC_IRQHandler                                    dbg/startup_stm32f10x_cl.o
RCC_ITConfig                                      dbg/stm32f10x_rcc.o
RCC_LSEConfig                                     dbg/stm32f10x_rcc.o
RCC_LSICmd                                        dbg/stm32f10x_rcc.o
RCC_MCOConfig                                     dbg/stm32f10x_rcc.o
RCC_OTGFSCLKConfig                                dbg/stm32f10x_rcc.o
RCC_PCLK1Config                                   dbg/stm32f10x_rcc.o
RCC_PCLK2Config                                   dbg/stm32f10x_rcc.o
RCC_PLL2Cmd                                       dbg/stm32f10x_rcc.o
RCC_PLL2Config                                    dbg/stm32f10x_rcc.o
RCC_PLL3Cmd                                       dbg/stm32f10x_rcc.o
RCC_PLL3Config                                    dbg/stm32f10x_rcc.o
RCC_PLLCmd                                        dbg/stm32f10x_rcc.o
RCC_PLLConfig                                     dbg/stm32f10x_rcc.o
RCC_PREDIV1Config                                 dbg/stm32f10x_rcc.o
RCC_PREDIV2Config                                 dbg/stm32f10x_rcc.o
RCC_RTCCLKCmd                                     dbg/stm32f10x_rcc.o
RCC_RTCCLKConfig                                  dbg/stm32f10x_rcc.o
RCC_SYSCLKConfig                                  dbg/stm32f10x_rcc.o
RCC_WaitForHSEStartUp                             dbg/stm32f10x_rcc.o
RTCAlarm_IRQHandler                               dbg/startup_stm32f10x_cl.o
RTC_ClearFlag                                     dbg/stm32f10x_rtc.o
RTC_ClearITPendingBit                             dbg/stm32f10x_rtc.o
RTC_EnterConfigMode                               dbg/stm32f10x_rtc.o
RTC_ExitConfigMode                                dbg/stm32f10x_rtc.o
RTC_GetCounter                                    dbg/stm32f10x_rtc.o
RTC_GetDivider                                    dbg/stm32f10x_rtc.o
RTC_GetFlagStatus                                 dbg/stm32f10x_rtc.o
RTC_GetITStatus                                   dbg/stm32f10x_rtc.o
RTC_IRQHandler                                    dbg/startup_stm32f10x_cl.o
RTC_ITConfig                                      dbg/stm32f10x_rtc.o
RTC_SetAlarm                                      dbg/stm32f10x_rtc.o
RTC_SetCounter                                    dbg/stm32f10x_rtc.o
RTC_SetPrescaler                                  dbg/stm32f10x_rtc.o
RTC_WaitForLastTask                               dbg/stm32f10x_rtc.o
RTC_WaitForSynchro                                dbg/stm32f10x_rtc.o
RemoveDevice                                      c:/tools/devkitpro/devkitarm/bin/../lib/gcc/arm-eabi/4.4.2/../../../../arm-eabi/lib/thumb/thumb2\libsysbase.a(iosupport.o)
Reset_Handler                                     dbg/startup_stm32f10x_cl.o
SDIO_CEATAITCmd                                   dbg/stm32f10x_sdio.o
SDIO_ClearFlag                                    dbg/stm32f10x_sdio.o
SDIO_ClearITPendingBit                            dbg/stm32f10x_sdio.o
SDIO_ClockCmd                                     dbg/stm32f10x_sdio.o
SDIO_CmdStructInit                                dbg/stm32f10x_sdio.o
SDIO_CommandCompletionCmd                         dbg/stm32f10x_sdio.o
SDIO_DMACmd                                       dbg/stm32f10x_sdio.o
SDIO_DataConfig                                   dbg/stm32f10x_sdio.o
SDIO_DataStructInit                               dbg/stm32f10x_sdio.o
SDIO_DeInit                                       dbg/stm32f10x_sdio.o
SDIO_GetCommandResponse                           dbg/stm32f10x_sdio.o
SDIO_GetDataCounter                               dbg/stm32f10x_sdio.o
SDIO_GetFIFOCount                                 dbg/stm32f10x_sdio.o
SDIO_GetFlagStatus                                dbg/stm32f10x_sdio.o
SDIO_GetITStatus                                  dbg/stm32f10x_sdio.o
SDIO_GetPowerState                                dbg/stm32f10x_sdio.o
SDIO_GetResponse                                  dbg/stm32f10x_sdio.o
SDIO_IRQHandler                                   dbg/startup_stm32f10x_cl.o
SDIO_ITConfig                                     dbg/stm32f10x_sdio.o
SDIO_Init                                         dbg/stm32f10x_sdio.o
SDIO_ReadData                                     dbg/stm32f10x_sdio.o
SDIO_SendCEATACmd                                 dbg/stm32f10x_sdio.o
SDIO_SendCommand                                  dbg/stm32f10x_sdio.o
SDIO_SendSDIOSuspendCmd                           dbg/stm32f10x_sdio.o
SDIO_SetPowerState                                dbg/stm32f10x_sdio.o
SDIO_SetSDIOOperation                             dbg/stm32f10x_sdio.o
SDIO_SetSDIOReadWaitMode                          dbg/stm32f10x_sdio.o
SDIO_StartSDIOReadWait                            dbg/stm32f10x_sdio.o
SDIO_StopSDIOReadWait                             dbg/stm32f10x_sdio.o
SDIO_StructInit                                   dbg/stm32f10x_sdio.o
SDIO_WriteData                                    dbg/stm32f10x_sdio.o
SPI1_IRQHandler                                   dbg/startup_stm32f10x_cl.o
SPI2_IRQHandler                                   dbg/startup_stm32f10x_cl.o
SPI3_IRQHandler                                   dbg/startup_stm32f10x_cl.o
SPI_BiDirectionalLineConfig                       dbg/stm32f10x_spi.o
SPI_CalculateCRC                                  dbg/stm32f10x_spi.o
SPI_Cmd                                           dbg/stm32f10x_spi.o
                                                  dbg/stm3210c_eval_lcd.o
SPI_DataSizeConfig                                dbg/stm32f10x_spi.o
SPI_GetCRC                                        dbg/stm32f10x_spi.o
SPI_GetCRCPolynomial                              dbg/stm32f10x_spi.o
SPI_I2S_ClearFlag                                 dbg/stm32f10x_spi.o
SPI_I2S_ClearITPendingBit                         dbg/stm32f10x_spi.o
SPI_I2S_DMACmd                                    dbg/stm32f10x_spi.o
SPI_I2S_DeInit                                    dbg/stm32f10x_spi.o
                                                  dbg/stm3210c_eval_lcd.o
SPI_I2S_GetFlagStatus                             dbg/stm32f10x_spi.o
                                                  dbg/stm3210c_eval_lcd.o
SPI_I2S_GetITStatus                               dbg/stm32f10x_spi.o
SPI_I2S_ITConfig                                  dbg/stm32f10x_spi.o
SPI_I2S_ReceiveData                               dbg/stm32f10x_spi.o
                                                  dbg/stm3210c_eval_lcd.o
SPI_I2S_SendData                                  dbg/stm32f10x_spi.o
                                                  dbg/stm3210c_eval_lcd.o
SPI_Init                                          dbg/stm32f10x_spi.o
                                                  dbg/stm3210c_eval_lcd.o
SPI_NSSInternalSoftwareConfig                     dbg/stm32f10x_spi.o
SPI_SSOutputCmd                                   dbg/stm32f10x_spi.o
SPI_StructInit                                    dbg/stm32f10x_spi.o
SPI_TransmitCRC                                   dbg/stm32f10x_spi.o
STM3210C_LCD_Init                                 dbg/stm3210c_eval_lcd.o
                                                  dbg/bsp.o
STM_EVAL_COMInit                                  dbg/stm32_eval.o
STM_EVAL_LEDInit                                  dbg/stm32_eval.o
                                                  dbg/bsp.o
STM_EVAL_LEDOff                                   dbg/stm32_eval.o
                                                  dbg/bsp.o
STM_EVAL_LEDOn                                    dbg/stm32_eval.o
                                                  dbg/bsp.o
STM_EVAL_LEDToggle                                dbg/stm32_eval.o
STM_EVAL_PBGetState                               dbg/stm32_eval.o
STM_EVAL_PBInit                                   dbg/stm32_eval.o
SVC_Handler                                       ../../../../../ports/arm-cortex/qk/gnu/dbg\libqk_cortex-m3.a(qk_port.o)
                                                  dbg/startup_stm32f10x_cl.o
Spurious_Handler                                  dbg/startup_stm32f10x_cl.o
SysTick_CLKSourceConfig                           dbg/misc.o
SysTick_Handler                                   dbg/bsp.o
SystemFrequency                                   dbg/system_stm32f10x.o
SystemFrequency_AHBClk                            dbg/system_stm32f10x.o
SystemFrequency_APB1Clk                           dbg/system_stm32f10x.o
SystemFrequency_APB2Clk                           dbg/system_stm32f10x.o
SystemFrequency_SysClk                            dbg/system_stm32f10x.o
                                                  dbg/bsp.o
SystemInit                                        dbg/system_stm32f10x.o
                                                  dbg/bsp.o
TAMPER_IRQHandler                                 dbg/startup_stm32f10x_cl.o
TIM1_BRK_IRQHandler                               dbg/startup_stm32f10x_cl.o
TIM1_CC_IRQHandler                                dbg/startup_stm32f10x_cl.o
TIM1_TRG_COM_IRQHandler                           dbg/startup_stm32f10x_cl.o
TIM1_UP_IRQHandler                                dbg/startup_stm32f10x_cl.o
TIM2_IRQHandler                                   dbg/startup_stm32f10x_cl.o
TIM3_IRQHandler                                   dbg/startup_stm32f10x_cl.o
TIM4_IRQHandler                                   dbg/startup_stm32f10x_cl.o
TIM5_IRQHandler                                   dbg/startup_stm32f10x_cl.o
TIM6_IRQHandler                                   dbg/startup_stm32f10x_cl.o
TIM7_IRQHandler                                   dbg/startup_stm32f10x_cl.o
TIM8_BRK_IRQHandler                               dbg/startup_stm32f10x_cl.o
TIM8_CC_IRQHandler                                dbg/startup_stm32f10x_cl.o
TIM8_TRG_COM_IRQHandler                           dbg/startup_stm32f10x_cl.o
TIM8_UP_IRQHandler                                dbg/startup_stm32f10x_cl.o
TIM_ARRPreloadConfig                              dbg/stm32f10x_tim.o
TIM_BDTRConfig                                    dbg/stm32f10x_tim.o
TIM_BDTRStructInit                                dbg/stm32f10x_tim.o
TIM_CCPreloadControl                              dbg/stm32f10x_tim.o
TIM_CCxCmd                                        dbg/stm32f10x_tim.o
TIM_CCxNCmd                                       dbg/stm32f10x_tim.o
TIM_ClearFlag                                     dbg/stm32f10x_tim.o
TIM_ClearITPendingBit                             dbg/stm32f10x_tim.o
TIM_ClearOC1Ref                                   dbg/stm32f10x_tim.o
TIM_ClearOC2Ref                                   dbg/stm32f10x_tim.o
TIM_ClearOC3Ref                                   dbg/stm32f10x_tim.o
TIM_ClearOC4Ref                                   dbg/stm32f10x_tim.o
TIM_Cmd                                           dbg/stm32f10x_tim.o
TIM_CounterModeConfig                             dbg/stm32f10x_tim.o
TIM_CtrlPWMOutputs                                dbg/stm32f10x_tim.o
TIM_DMACmd                                        dbg/stm32f10x_tim.o
TIM_DMAConfig                                     dbg/stm32f10x_tim.o
TIM_DeInit                                        dbg/stm32f10x_tim.o
TIM_ETRClockMode1Config                           dbg/stm32f10x_tim.o
TIM_ETRClockMode2Config                           dbg/stm32f10x_tim.o
TIM_ETRConfig                                     dbg/stm32f10x_tim.o
TIM_EncoderInterfaceConfig                        dbg/stm32f10x_tim.o
TIM_ForcedOC1Config                               dbg/stm32f10x_tim.o
TIM_ForcedOC2Config                               dbg/stm32f10x_tim.o
TIM_ForcedOC3Config                               dbg/stm32f10x_tim.o
TIM_ForcedOC4Config                               dbg/stm32f10x_tim.o
TIM_GenerateEvent                                 dbg/stm32f10x_tim.o
TIM_GetCapture1                                   dbg/stm32f10x_tim.o
TIM_GetCapture2                                   dbg/stm32f10x_tim.o
TIM_GetCapture3                                   dbg/stm32f10x_tim.o
TIM_GetCapture4                                   dbg/stm32f10x_tim.o
TIM_GetCounter                                    dbg/stm32f10x_tim.o
TIM_GetFlagStatus                                 dbg/stm32f10x_tim.o
TIM_GetITStatus                                   dbg/stm32f10x_tim.o
TIM_GetPrescaler                                  dbg/stm32f10x_tim.o
TIM_ICInit                                        dbg/stm32f10x_tim.o
TIM_ICStructInit                                  dbg/stm32f10x_tim.o
TIM_ITConfig                                      dbg/stm32f10x_tim.o
TIM_ITRxExternalClockConfig                       dbg/stm32f10x_tim.o
TIM_InternalClockConfig                           dbg/stm32f10x_tim.o
TIM_OC1FastConfig                                 dbg/stm32f10x_tim.o
TIM_OC1Init                                       dbg/stm32f10x_tim.o
TIM_OC1NPolarityConfig                            dbg/stm32f10x_tim.o
TIM_OC1PolarityConfig                             dbg/stm32f10x_tim.o
TIM_OC1PreloadConfig                              dbg/stm32f10x_tim.o
TIM_OC2FastConfig                                 dbg/stm32f10x_tim.o
TIM_OC2Init                                       dbg/stm32f10x_tim.o
TIM_OC2NPolarityConfig                            dbg/stm32f10x_tim.o
TIM_OC2PolarityConfig                             dbg/stm32f10x_tim.o
TIM_OC2PreloadConfig                              dbg/stm32f10x_tim.o
TIM_OC3FastConfig                                 dbg/stm32f10x_tim.o
TIM_OC3Init                                       dbg/stm32f10x_tim.o
TIM_OC3NPolarityConfig                            dbg/stm32f10x_tim.o
TIM_OC3PolarityConfig                             dbg/stm32f10x_tim.o
TIM_OC3PreloadConfig                              dbg/stm32f10x_tim.o
TIM_OC4FastConfig                                 dbg/stm32f10x_tim.o
TIM_OC4Init                                       dbg/stm32f10x_tim.o
TIM_OC4PolarityConfig                             dbg/stm32f10x_tim.o
TIM_OC4PreloadConfig                              dbg/stm32f10x_tim.o
TIM_OCStructInit                                  dbg/stm32f10x_tim.o
TIM_PWMIConfig                                    dbg/stm32f10x_tim.o
TIM_PrescalerConfig                               dbg/stm32f10x_tim.o
TIM_SelectCCDMA                                   dbg/stm32f10x_tim.o
TIM_SelectCOM                                     dbg/stm32f10x_tim.o
TIM_SelectHallSensor                              dbg/stm32f10x_tim.o
TIM_SelectInputTrigger                            dbg/stm32f10x_tim.o
TIM_SelectMasterSlaveMode                         dbg/stm32f10x_tim.o
TIM_SelectOCxM                                    dbg/stm32f10x_tim.o
TIM_SelectOnePulseMode                            dbg/stm32f10x_tim.o
TIM_SelectOutputTrigger                           dbg/stm32f10x_tim.o
TIM_SelectSlaveMode                               dbg/stm32f10x_tim.o
TIM_SetAutoreload                                 dbg/stm32f10x_tim.o
TIM_SetClockDivision                              dbg/stm32f10x_tim.o
TIM_SetCompare1                                   dbg/stm32f10x_tim.o
TIM_SetCompare2                                   dbg/stm32f10x_tim.o
TIM_SetCompare3                                   dbg/stm32f10x_tim.o
TIM_SetCompare4                                   dbg/stm32f10x_tim.o
TIM_SetCounter                                    dbg/stm32f10x_tim.o
TIM_SetIC1Prescaler                               dbg/stm32f10x_tim.o
TIM_SetIC2Prescaler                               dbg/stm32f10x_tim.o
TIM_SetIC3Prescaler                               dbg/stm32f10x_tim.o
TIM_SetIC4Prescaler                               dbg/stm32f10x_tim.o
TIM_TIxExternalClockConfig                        dbg/stm32f10x_tim.o
TIM_TimeBaseInit                                  dbg/stm32f10x_tim.o
TIM_TimeBaseStructInit                            dbg/stm32f10x_tim.o
TIM_UpdateDisableConfig                           dbg/stm32f10x_tim.o
TIM_UpdateRequestConfig                           dbg/stm32f10x_tim.o
TS_State                                          dbg/stm3210c_eval_ioe.o
Table_ctor                                        dbg/table.o
                                                  dbg/main.o
TimeOut                                           dbg/stm3210c_eval_ioe.o
UART4_IRQHandler                                  dbg/startup_stm32f10x_cl.o
UART5_IRQHandler                                  dbg/startup_stm32f10x_cl.o
USART1_IRQHandler                                 dbg/startup_stm32f10x_cl.o
USART2_IRQHandler                                 dbg/startup_stm32f10x_cl.o
USART3_IRQHandler                                 dbg/startup_stm32f10x_cl.o
USART_ClearFlag                                   dbg/stm32f10x_usart.o
USART_ClearITPendingBit                           dbg/stm32f10x_usart.o
USART_ClockInit                                   dbg/stm32f10x_usart.o
USART_ClockStructInit                             dbg/stm32f10x_usart.o
USART_Cmd                                         dbg/stm32f10x_usart.o
                                                  dbg/stm32_eval.o
USART_DMACmd                                      dbg/stm32f10x_usart.o
USART_DeInit                                      dbg/stm32f10x_usart.o
USART_GetFlagStatus                               dbg/stm32f10x_usart.o
USART_GetITStatus                                 dbg/stm32f10x_usart.o
USART_HalfDuplexCmd                               dbg/stm32f10x_usart.o
USART_ITConfig                                    dbg/stm32f10x_usart.o
USART_Init                                        dbg/stm32f10x_usart.o
                                                  dbg/stm32_eval.o
USART_IrDACmd                                     dbg/stm32f10x_usart.o
USART_IrDAConfig                                  dbg/stm32f10x_usart.o
USART_LINBreakDetectLengthConfig                  dbg/stm32f10x_usart.o
USART_LINCmd                                      dbg/stm32f10x_usart.o
USART_ReceiveData                                 dbg/stm32f10x_usart.o
USART_ReceiverWakeUpCmd                           dbg/stm32f10x_usart.o
USART_SendBreak                                   dbg/stm32f10x_usart.o
USART_SendData                                    dbg/stm32f10x_usart.o
USART_SetAddress                                  dbg/stm32f10x_usart.o
USART_SetGuardTime                                dbg/stm32f10x_usart.o
USART_SetPrescaler                                dbg/stm32f10x_usart.o
USART_SmartCardCmd                                dbg/stm32f10x_usart.o
USART_SmartCardNACKCmd                            dbg/stm32f10x_usart.o
USART_StructInit                                  dbg/stm32f10x_usart.o
USART_WakeUpConfig                                dbg/stm32f10x_usart.o
USBWakeUp_IRQHandler                              dbg/startup_stm32f10x_cl.o
USB_HP_CAN1_TX_IRQHandler                         dbg/startup_stm32f10x_cl.o
USB_LP_CAN1_RX0_IRQHandler                        dbg/startup_stm32f10x_cl.o
UsageFault_Handler                                dbg/startup_stm32f10x_cl.o
WWDG_ClearFlag                                    dbg/stm32f10x_wwdg.o
WWDG_DeInit                                       dbg/stm32f10x_wwdg.o
WWDG_Enable                                       dbg/stm32f10x_wwdg.o
WWDG_EnableIT                                     dbg/stm32f10x_wwdg.o
WWDG_GetFlagStatus                                dbg/stm32f10x_wwdg.o
WWDG_IRQHandler                                   dbg/startup_stm32f10x_cl.o
WWDG_SetCounter                                   dbg/stm32f10x_wwdg.o
WWDG_SetPrescaler                                 dbg/stm32f10x_wwdg.o
WWDG_SetWindowValue                               dbg/stm32f10x_wwdg.o
_Jv_RegisterClasses                               c:/tools/devkitpro/devkitarm/bin/../lib/gcc/arm-eabi/4.4.2/thumb/thumb2/crtbegin.o
__LDREXB                                          dbg/core_cm3.o
__LDREXH                                          dbg/core_cm3.o
__LDREXW                                          dbg/core_cm3.o
__RBIT                                            dbg/core_cm3.o
__REV                                             dbg/core_cm3.o
__REV16                                           dbg/core_cm3.o
__REVSH                                           dbg/core_cm3.o
__STREXB                                          dbg/core_cm3.o
__STREXH                                          dbg/core_cm3.o
__STREXW                                          dbg/core_cm3.o
__alloc_handle                                    c:/tools/devkitpro/devkitarm/bin/../lib/gcc/arm-eabi/4.4.2/../../../../arm-eabi/lib/thumb/thumb2\libsysbase.a(handle_manager.o)
__bss_end__                                       dbg/startup_stm32f10x_cl.o
                                                  c:/tools/devkitpro/devkitarm/bin/../lib/gcc/arm-eabi/4.4.2/../../../../arm-eabi/lib/thumb/thumb2/crt0.o
__bss_start__                                     dbg/startup_stm32f10x_cl.o
                                                  c:/tools/devkitpro/devkitarm/bin/../lib/gcc/arm-eabi/4.4.2/../../../../arm-eabi/lib/thumb/thumb2/crt0.o
__c_stack_top__                                   dbg/startup_stm32f10x_cl.o
__call_exitprocs                                  c:/tools/devkitpro/devkitarm/bin/../lib/gcc/arm-eabi/4.4.2/../../../../arm-eabi/lib/thumb/thumb2\libc.a(lib_a-__call_atexit.o)
                                                  c:/tools/devkitpro/devkitarm/bin/../lib/gcc/arm-eabi/4.4.2/../../../../arm-eabi/lib/thumb/thumb2\libc.a(lib_a-exit.o)
__data_end__                                      dbg/startup_stm32f10x_cl.o
__data_load                                       dbg/startup_stm32f10x_cl.o
__data_start                                      dbg/startup_stm32f10x_cl.o
__deregister_frame_info                           c:/tools/devkitpro/devkitarm/bin/../lib/gcc/arm-eabi/4.4.2/thumb/thumb2/crtbegin.o
__dso_handle                                      c:/tools/devkitpro/devkitarm/bin/../lib/gcc/arm-eabi/4.4.2/thumb/thumb2/crtbegin.o
__end__                                           c:/tools/devkitpro/devkitarm/bin/../lib/gcc/arm-eabi/4.4.2/../../../../arm-eabi/lib/thumb/thumb2\libsysbase.a(sbrk.o)
__fini_array_end                                  c:/tools/devkitpro/devkitarm/bin/../lib/gcc/arm-eabi/4.4.2/../../../../arm-eabi/lib/thumb/thumb2\libc.a(lib_a-init.o)
__fini_array_start                                c:/tools/devkitpro/devkitarm/bin/../lib/gcc/arm-eabi/4.4.2/../../../../arm-eabi/lib/thumb/thumb2\libc.a(lib_a-init.o)
__fp_lock_all                                     c:/tools/devkitpro/devkitarm/bin/../lib/gcc/arm-eabi/4.4.2/../../../../arm-eabi/lib/thumb/thumb2\libc.a(lib_a-findfp.o)
__fp_unlock_all                                   c:/tools/devkitpro/devkitarm/bin/../lib/gcc/arm-eabi/4.4.2/../../../../arm-eabi/lib/thumb/thumb2\libc.a(lib_a-findfp.o)
__get_BASEPRI                                     dbg/core_cm3.o
__get_CONTROL                                     dbg/core_cm3.o
__get_FAULTMASK                                   dbg/core_cm3.o
__get_MSP                                         dbg/core_cm3.o
__get_PRIMASK                                     dbg/core_cm3.o
__get_PSP                                         dbg/core_cm3.o
__get_handle                                      c:/tools/devkitpro/devkitarm/bin/../lib/gcc/arm-eabi/4.4.2/../../../../arm-eabi/lib/thumb/thumb2\libsysbase.a(handle_manager.o)
                                                  c:/tools/devkitpro/devkitarm/bin/../lib/gcc/arm-eabi/4.4.2/../../../../arm-eabi/lib/thumb/thumb2\libsysbase.a(write.o)
                                                  c:/tools/devkitpro/devkitarm/bin/../lib/gcc/arm-eabi/4.4.2/../../../../arm-eabi/lib/thumb/thumb2\libsysbase.a(read.o)
                                                  c:/tools/devkitpro/devkitarm/bin/../lib/gcc/arm-eabi/4.4.2/../../../../arm-eabi/lib/thumb/thumb2\libsysbase.a(lseek.o)
                                                  c:/tools/devkitpro/devkitarm/bin/../lib/gcc/arm-eabi/4.4.2/../../../../arm-eabi/lib/thumb/thumb2\libsysbase.a(close.o)
__init_array_end                                  c:/tools/devkitpro/devkitarm/bin/../lib/gcc/arm-eabi/4.4.2/../../../../arm-eabi/lib/thumb/thumb2\libc.a(lib_a-init.o)
__init_array_start                                c:/tools/devkitpro/devkitarm/bin/../lib/gcc/arm-eabi/4.4.2/../../../../arm-eabi/lib/thumb/thumb2\libc.a(lib_a-init.o)
__libc_fini_array                                 c:/tools/devkitpro/devkitarm/bin/../lib/gcc/arm-eabi/4.4.2/../../../../arm-eabi/lib/thumb/thumb2\libc.a(lib_a-init.o)
                                                  c:/tools/devkitpro/devkitarm/bin/../lib/gcc/arm-eabi/4.4.2/../../../../arm-eabi/lib/thumb/thumb2/crt0.o
__libc_init_array                                 c:/tools/devkitpro/devkitarm/bin/../lib/gcc/arm-eabi/4.4.2/../../../../arm-eabi/lib/thumb/thumb2\libc.a(lib_a-init.o)
                                                  dbg/startup_stm32f10x_cl.o
                                                  c:/tools/devkitpro/devkitarm/bin/../lib/gcc/arm-eabi/4.4.2/../../../../arm-eabi/lib/thumb/thumb2/crt0.o
__malloc_av_                                      c:/tools/devkitpro/devkitarm/bin/../lib/gcc/arm-eabi/4.4.2/../../../../arm-eabi/lib/thumb/thumb2\libc.a(lib_a-mallocr.o)
                                                  c:/tools/devkitpro/devkitarm/bin/../lib/gcc/arm-eabi/4.4.2/../../../../arm-eabi/lib/thumb/thumb2\libc.a(lib_a-freer.o)
__malloc_current_mallinfo                         c:/tools/devkitpro/devkitarm/bin/../lib/gcc/arm-eabi/4.4.2/../../../../arm-eabi/lib/thumb/thumb2\libc.a(lib_a-mallocr.o)
                                                  c:/tools/devkitpro/devkitarm/bin/../lib/gcc/arm-eabi/4.4.2/../../../../arm-eabi/lib/thumb/thumb2\libc.a(lib_a-freer.o)
__malloc_lock                                     c:/tools/devkitpro/devkitarm/bin/../lib/gcc/arm-eabi/4.4.2/../../../../arm-eabi/lib/thumb/thumb2\libc.a(lib_a-mlock.o)
                                                  c:/tools/devkitpro/devkitarm/bin/../lib/gcc/arm-eabi/4.4.2/../../../../arm-eabi/lib/thumb/thumb2\libc.a(lib_a-freer.o)
                                                  c:/tools/devkitpro/devkitarm/bin/../lib/gcc/arm-eabi/4.4.2/../../../../arm-eabi/lib/thumb/thumb2\libc.a(lib_a-mallocr.o)
__malloc_max_sbrked_mem                           c:/tools/devkitpro/devkitarm/bin/../lib/gcc/arm-eabi/4.4.2/../../../../arm-eabi/lib/thumb/thumb2\libc.a(lib_a-mallocr.o)
__malloc_max_total_mem                            c:/tools/devkitpro/devkitarm/bin/../lib/gcc/arm-eabi/4.4.2/../../../../arm-eabi/lib/thumb/thumb2\libc.a(lib_a-mallocr.o)
__malloc_sbrk_base                                c:/tools/devkitpro/devkitarm/bin/../lib/gcc/arm-eabi/4.4.2/../../../../arm-eabi/lib/thumb/thumb2\libc.a(lib_a-mallocr.o)
                                                  c:/tools/devkitpro/devkitarm/bin/../lib/gcc/arm-eabi/4.4.2/../../../../arm-eabi/lib/thumb/thumb2\libc.a(lib_a-freer.o)
__malloc_top_pad                                  c:/tools/devkitpro/devkitarm/bin/../lib/gcc/arm-eabi/4.4.2/../../../../arm-eabi/lib/thumb/thumb2\libc.a(lib_a-mallocr.o)
                                                  c:/tools/devkitpro/devkitarm/bin/../lib/gcc/arm-eabi/4.4.2/../../../../arm-eabi/lib/thumb/thumb2\libc.a(lib_a-freer.o)
__malloc_trim_threshold                           c:/tools/devkitpro/devkitarm/bin/../lib/gcc/arm-eabi/4.4.2/../../../../arm-eabi/lib/thumb/thumb2\libc.a(lib_a-mallocr.o)
                                                  c:/tools/devkitpro/devkitarm/bin/../lib/gcc/arm-eabi/4.4.2/../../../../arm-eabi/lib/thumb/thumb2\libc.a(lib_a-freer.o)
__malloc_unlock                                   c:/tools/devkitpro/devkitarm/bin/../lib/gcc/arm-eabi/4.4.2/../../../../arm-eabi/lib/thumb/thumb2\libc.a(lib_a-mlock.o)
                                                  c:/tools/devkitpro/devkitarm/bin/../lib/gcc/arm-eabi/4.4.2/../../../../arm-eabi/lib/thumb/thumb2\libc.a(lib_a-freer.o)
                                                  c:/tools/devkitpro/devkitarm/bin/../lib/gcc/arm-eabi/4.4.2/../../../../arm-eabi/lib/thumb/thumb2\libc.a(lib_a-mallocr.o)
__preinit_array_end                               c:/tools/devkitpro/devkitarm/bin/../lib/gcc/arm-eabi/4.4.2/../../../../arm-eabi/lib/thumb/thumb2\libc.a(lib_a-init.o)
__preinit_array_start                             c:/tools/devkitpro/devkitarm/bin/../lib/gcc/arm-eabi/4.4.2/../../../../arm-eabi/lib/thumb/thumb2\libc.a(lib_a-init.o)
__register_exitproc                               c:/tools/devkitpro/devkitarm/bin/../lib/gcc/arm-eabi/4.4.2/../../../../arm-eabi/lib/thumb/thumb2\libc.a(lib_a-__atexit.o)
                                                  c:/tools/devkitpro/devkitarm/bin/../lib/gcc/arm-eabi/4.4.2/../../../../arm-eabi/lib/thumb/thumb2\libc.a(lib_a-atexit.o)
__register_frame_info                             c:/tools/devkitpro/devkitarm/bin/../lib/gcc/arm-eabi/4.4.2/thumb/thumb2/crtbegin.o
__release_handle                                  c:/tools/devkitpro/devkitarm/bin/../lib/gcc/arm-eabi/4.4.2/../../../../arm-eabi/lib/thumb/thumb2\libsysbase.a(handle_manager.o)
                                                  c:/tools/devkitpro/devkitarm/bin/../lib/gcc/arm-eabi/4.4.2/../../../../arm-eabi/lib/thumb/thumb2\libsysbase.a(close.o)
__sclose                                          c:/tools/devkitpro/devkitarm/bin/../lib/gcc/arm-eabi/4.4.2/../../../../arm-eabi/lib/thumb/thumb2\libc.a(lib_a-stdio.o)
                                                  c:/tools/devkitpro/devkitarm/bin/../lib/gcc/arm-eabi/4.4.2/../../../../arm-eabi/lib/thumb/thumb2\libc.a(lib_a-findfp.o)
__set_BASEPRI                                     dbg/core_cm3.o
__set_CONTROL                                     dbg/core_cm3.o
__set_FAULTMASK                                   dbg/core_cm3.o
__set_MSP                                         dbg/core_cm3.o
__set_PRIMASK                                     dbg/core_cm3.o
__set_PSP                                         dbg/core_cm3.o
__sf_fake_stderr                                  c:/tools/devkitpro/devkitarm/bin/../lib/gcc/arm-eabi/4.4.2/../../../../arm-eabi/lib/thumb/thumb2\libc.a(lib_a-findfp.o)
                                                  c:/tools/devkitpro/devkitarm/bin/../lib/gcc/arm-eabi/4.4.2/../../../../arm-eabi/lib/thumb/thumb2\libc.a(lib_a-fflush.o)
                                                  c:/tools/devkitpro/devkitarm/bin/../lib/gcc/arm-eabi/4.4.2/../../../../arm-eabi/lib/thumb/thumb2\libc.a(lib_a-fclose.o)
                                                  c:/tools/devkitpro/devkitarm/bin/../lib/gcc/arm-eabi/4.4.2/../../../../arm-eabi/lib/thumb/thumb2\libc.a(lib_a-impure.o)
__sf_fake_stdin                                   c:/tools/devkitpro/devkitarm/bin/../lib/gcc/arm-eabi/4.4.2/../../../../arm-eabi/lib/thumb/thumb2\libc.a(lib_a-findfp.o)
                                                  c:/tools/devkitpro/devkitarm/bin/../lib/gcc/arm-eabi/4.4.2/../../../../arm-eabi/lib/thumb/thumb2\libc.a(lib_a-fflush.o)
                                                  c:/tools/devkitpro/devkitarm/bin/../lib/gcc/arm-eabi/4.4.2/../../../../arm-eabi/lib/thumb/thumb2\libc.a(lib_a-fclose.o)
                                                  c:/tools/devkitpro/devkitarm/bin/../lib/gcc/arm-eabi/4.4.2/../../../../arm-eabi/lib/thumb/thumb2\libc.a(lib_a-impure.o)
__sf_fake_stdout                                  c:/tools/devkitpro/devkitarm/bin/../lib/gcc/arm-eabi/4.4.2/../../../../arm-eabi/lib/thumb/thumb2\libc.a(lib_a-findfp.o)
                                                  c:/tools/devkitpro/devkitarm/bin/../lib/gcc/arm-eabi/4.4.2/../../../../arm-eabi/lib/thumb/thumb2\libc.a(lib_a-fflush.o)
                                                  c:/tools/devkitpro/devkitarm/bin/../lib/gcc/arm-eabi/4.4.2/../../../../arm-eabi/lib/thumb/thumb2\libc.a(lib_a-fclose.o)
                                                  c:/tools/devkitpro/devkitarm/bin/../lib/gcc/arm-eabi/4.4.2/../../../../arm-eabi/lib/thumb/thumb2\libc.a(lib_a-impure.o)
__sfmoreglue                                      c:/tools/devkitpro/devkitarm/bin/../lib/gcc/arm-eabi/4.4.2/../../../../arm-eabi/lib/thumb/thumb2\libc.a(lib_a-findfp.o)
__sfp                                             c:/tools/devkitpro/devkitarm/bin/../lib/gcc/arm-eabi/4.4.2/../../../../arm-eabi/lib/thumb/thumb2\libc.a(lib_a-findfp.o)
__sfp_lock_acquire                                c:/tools/devkitpro/devkitarm/bin/../lib/gcc/arm-eabi/4.4.2/../../../../arm-eabi/lib/thumb/thumb2\libc.a(lib_a-findfp.o)
                                                  c:/tools/devkitpro/devkitarm/bin/../lib/gcc/arm-eabi/4.4.2/../../../../arm-eabi/lib/thumb/thumb2\libc.a(lib_a-fclose.o)
                                                  c:/tools/devkitpro/devkitarm/bin/../lib/gcc/arm-eabi/4.4.2/../../../../arm-eabi/lib/thumb/thumb2\libc.a(lib_a-fwalk.o)
__sfp_lock_release                                c:/tools/devkitpro/devkitarm/bin/../lib/gcc/arm-eabi/4.4.2/../../../../arm-eabi/lib/thumb/thumb2\libc.a(lib_a-findfp.o)
                                                  c:/tools/devkitpro/devkitarm/bin/../lib/gcc/arm-eabi/4.4.2/../../../../arm-eabi/lib/thumb/thumb2\libc.a(lib_a-fclose.o)
                                                  c:/tools/devkitpro/devkitarm/bin/../lib/gcc/arm-eabi/4.4.2/../../../../arm-eabi/lib/thumb/thumb2\libc.a(lib_a-fwalk.o)
__sinit                                           c:/tools/devkitpro/devkitarm/bin/../lib/gcc/arm-eabi/4.4.2/../../../../arm-eabi/lib/thumb/thumb2\libc.a(lib_a-findfp.o)
                                                  c:/tools/devkitpro/devkitarm/bin/../lib/gcc/arm-eabi/4.4.2/../../../../arm-eabi/lib/thumb/thumb2\libc.a(lib_a-fflush.o)
                                                  c:/tools/devkitpro/devkitarm/bin/../lib/gcc/arm-eabi/4.4.2/../../../../arm-eabi/lib/thumb/thumb2\libc.a(lib_a-fclose.o)
__sinit_lock_acquire                              c:/tools/devkitpro/devkitarm/bin/../lib/gcc/arm-eabi/4.4.2/../../../../arm-eabi/lib/thumb/thumb2\libc.a(lib_a-findfp.o)
__sinit_lock_release                              c:/tools/devkitpro/devkitarm/bin/../lib/gcc/arm-eabi/4.4.2/../../../../arm-eabi/lib/thumb/thumb2\libc.a(lib_a-findfp.o)
__sread                                           c:/tools/devkitpro/devkitarm/bin/../lib/gcc/arm-eabi/4.4.2/../../../../arm-eabi/lib/thumb/thumb2\libc.a(lib_a-stdio.o)
                                                  c:/tools/devkitpro/devkitarm/bin/../lib/gcc/arm-eabi/4.4.2/../../../../arm-eabi/lib/thumb/thumb2\libc.a(lib_a-findfp.o)
__sseek                                           c:/tools/devkitpro/devkitarm/bin/../lib/gcc/arm-eabi/4.4.2/../../../../arm-eabi/lib/thumb/thumb2\libc.a(lib_a-stdio.o)
                                                  c:/tools/devkitpro/devkitarm/bin/../lib/gcc/arm-eabi/4.4.2/../../../../arm-eabi/lib/thumb/thumb2\libc.a(lib_a-findfp.o)
__stack                                           c:/tools/devkitpro/devkitarm/bin/../lib/gcc/arm-eabi/4.4.2/../../../../arm-eabi/lib/thumb/thumb2/crt0.o
__swrite                                          c:/tools/devkitpro/devkitarm/bin/../lib/gcc/arm-eabi/4.4.2/../../../../arm-eabi/lib/thumb/thumb2\libc.a(lib_a-stdio.o)
                                                  c:/tools/devkitpro/devkitarm/bin/../lib/gcc/arm-eabi/4.4.2/../../../../arm-eabi/lib/thumb/thumb2\libc.a(lib_a-findfp.o)
__syscalls                                        c:/tools/devkitpro/devkitarm/bin/../lib/gcc/arm-eabi/4.4.2/../../../../arm-eabi/lib/thumb/thumb2\libsysbase.a(syscall_support.o)
                                                  c:/tools/devkitpro/devkitarm/bin/../lib/gcc/arm-eabi/4.4.2/../../../../arm-eabi/lib/thumb/thumb2\libsysbase.a(_exit.o)
_cleanup                                          c:/tools/devkitpro/devkitarm/bin/../lib/gcc/arm-eabi/4.4.2/../../../../arm-eabi/lib/thumb/thumb2\libc.a(lib_a-findfp.o)
_cleanup_r                                        c:/tools/devkitpro/devkitarm/bin/../lib/gcc/arm-eabi/4.4.2/../../../../arm-eabi/lib/thumb/thumb2\libc.a(lib_a-findfp.o)
_close_r                                          c:/tools/devkitpro/devkitarm/bin/../lib/gcc/arm-eabi/4.4.2/../../../../arm-eabi/lib/thumb/thumb2\libsysbase.a(close.o)
                                                  c:/tools/devkitpro/devkitarm/bin/../lib/gcc/arm-eabi/4.4.2/../../../../arm-eabi/lib/thumb/thumb2\libc.a(lib_a-stdio.o)
_exit                                             c:/tools/devkitpro/devkitarm/bin/../lib/gcc/arm-eabi/4.4.2/../../../../arm-eabi/lib/thumb/thumb2\libsysbase.a(_exit.o)
                                                  c:/tools/devkitpro/devkitarm/bin/../lib/gcc/arm-eabi/4.4.2/../../../../arm-eabi/lib/thumb/thumb2\libc.a(lib_a-exit.o)
_fclose_r                                         c:/tools/devkitpro/devkitarm/bin/../lib/gcc/arm-eabi/4.4.2/../../../../arm-eabi/lib/thumb/thumb2\libc.a(lib_a-fclose.o)
_fflush_r                                         c:/tools/devkitpro/devkitarm/bin/../lib/gcc/arm-eabi/4.4.2/../../../../arm-eabi/lib/thumb/thumb2\libc.a(lib_a-fflush.o)
                                                  c:/tools/devkitpro/devkitarm/bin/../lib/gcc/arm-eabi/4.4.2/../../../../arm-eabi/lib/thumb/thumb2\libc.a(lib_a-fclose.o)
_fini                                             c:/tools/devkitpro/devkitarm/bin/../lib/gcc/arm-eabi/4.4.2/thumb/thumb2/crti.o
                                                  c:/tools/devkitpro/devkitarm/bin/../lib/gcc/arm-eabi/4.4.2/../../../../arm-eabi/lib/thumb/thumb2\libc.a(lib_a-init.o)
_free_r                                           c:/tools/devkitpro/devkitarm/bin/../lib/gcc/arm-eabi/4.4.2/../../../../arm-eabi/lib/thumb/thumb2\libc.a(lib_a-freer.o)
                                                  c:/tools/devkitpro/devkitarm/bin/../lib/gcc/arm-eabi/4.4.2/../../../../arm-eabi/lib/thumb/thumb2\libc.a(lib_a-fflush.o)
                                                  c:/tools/devkitpro/devkitarm/bin/../lib/gcc/arm-eabi/4.4.2/../../../../arm-eabi/lib/thumb/thumb2\libc.a(lib_a-fclose.o)
                                                  c:/tools/devkitpro/devkitarm/bin/../lib/gcc/arm-eabi/4.4.2/../../../../arm-eabi/lib/thumb/thumb2\libc.a(lib_a-mallocr.o)
_fwalk                                            c:/tools/devkitpro/devkitarm/bin/../lib/gcc/arm-eabi/4.4.2/../../../../arm-eabi/lib/thumb/thumb2\libc.a(lib_a-fwalk.o)
                                                  c:/tools/devkitpro/devkitarm/bin/../lib/gcc/arm-eabi/4.4.2/../../../../arm-eabi/lib/thumb/thumb2\libc.a(lib_a-findfp.o)
_fwalk_reent                                      c:/tools/devkitpro/devkitarm/bin/../lib/gcc/arm-eabi/4.4.2/../../../../arm-eabi/lib/thumb/thumb2\libc.a(lib_a-fwalk.o)
                                                  c:/tools/devkitpro/devkitarm/bin/../lib/gcc/arm-eabi/4.4.2/../../../../arm-eabi/lib/thumb/thumb2\libc.a(lib_a-fflush.o)
_global_impure_ptr                                c:/tools/devkitpro/devkitarm/bin/../lib/gcc/arm-eabi/4.4.2/../../../../arm-eabi/lib/thumb/thumb2\libc.a(lib_a-impure.o)
                                                  c:/tools/devkitpro/devkitarm/bin/../lib/gcc/arm-eabi/4.4.2/../../../../arm-eabi/lib/thumb/thumb2\libc.a(lib_a-fflush.o)
                                                  c:/tools/devkitpro/devkitarm/bin/../lib/gcc/arm-eabi/4.4.2/../../../../arm-eabi/lib/thumb/thumb2\libc.a(lib_a-findfp.o)
                                                  c:/tools/devkitpro/devkitarm/bin/../lib/gcc/arm-eabi/4.4.2/../../../../arm-eabi/lib/thumb/thumb2\libc.a(lib_a-__call_atexit.o)
                                                  c:/tools/devkitpro/devkitarm/bin/../lib/gcc/arm-eabi/4.4.2/../../../../arm-eabi/lib/thumb/thumb2\libc.a(lib_a-__atexit.o)
                                                  c:/tools/devkitpro/devkitarm/bin/../lib/gcc/arm-eabi/4.4.2/../../../../arm-eabi/lib/thumb/thumb2\libc.a(lib_a-exit.o)
_impure_ptr                                       c:/tools/devkitpro/devkitarm/bin/../lib/gcc/arm-eabi/4.4.2/../../../../arm-eabi/lib/thumb/thumb2\libc.a(lib_a-impure.o)
                                                  c:/tools/devkitpro/devkitarm/bin/../lib/gcc/arm-eabi/4.4.2/../../../../arm-eabi/lib/thumb/thumb2\libc.a(lib_a-fflush.o)
                                                  c:/tools/devkitpro/devkitarm/bin/../lib/gcc/arm-eabi/4.4.2/../../../../arm-eabi/lib/thumb/thumb2\libc.a(lib_a-fclose.o)
                                                  c:/tools/devkitpro/devkitarm/bin/../lib/gcc/arm-eabi/4.4.2/../../../../arm-eabi/lib/thumb/thumb2\libc.a(lib_a-findfp.o)
_init                                             c:/tools/devkitpro/devkitarm/bin/../lib/gcc/arm-eabi/4.4.2/thumb/thumb2/crti.o
                                                  c:/tools/devkitpro/devkitarm/bin/../lib/gcc/arm-eabi/4.4.2/../../../../arm-eabi/lib/thumb/thumb2\libc.a(lib_a-init.o)
_lseek_r                                          c:/tools/devkitpro/devkitarm/bin/../lib/gcc/arm-eabi/4.4.2/../../../../arm-eabi/lib/thumb/thumb2\libsysbase.a(lseek.o)
                                                  c:/tools/devkitpro/devkitarm/bin/../lib/gcc/arm-eabi/4.4.2/../../../../arm-eabi/lib/thumb/thumb2\libc.a(lib_a-stdio.o)
_mainCRTStartup                                   c:/tools/devkitpro/devkitarm/bin/../lib/gcc/arm-eabi/4.4.2/../../../../arm-eabi/lib/thumb/thumb2/crt0.o
_malloc_r                                         c:/tools/devkitpro/devkitarm/bin/../lib/gcc/arm-eabi/4.4.2/../../../../arm-eabi/lib/thumb/thumb2\libc.a(lib_a-mallocr.o)
                                                  c:/tools/devkitpro/devkitarm/bin/../lib/gcc/arm-eabi/4.4.2/../../../../arm-eabi/lib/thumb/thumb2\libc.a(lib_a-findfp.o)
_malloc_trim_r                                    c:/tools/devkitpro/devkitarm/bin/../lib/gcc/arm-eabi/4.4.2/../../../../arm-eabi/lib/thumb/thumb2\libc.a(lib_a-freer.o)
_read_r                                           c:/tools/devkitpro/devkitarm/bin/../lib/gcc/arm-eabi/4.4.2/../../../../arm-eabi/lib/thumb/thumb2\libsysbase.a(read.o)
                                                  c:/tools/devkitpro/devkitarm/bin/../lib/gcc/arm-eabi/4.4.2/../../../../arm-eabi/lib/thumb/thumb2\libc.a(lib_a-stdio.o)
_sbrk_r                                           c:/tools/devkitpro/devkitarm/bin/../lib/gcc/arm-eabi/4.4.2/../../../../arm-eabi/lib/thumb/thumb2\libsysbase.a(sbrk.o)
                                                  c:/tools/devkitpro/devkitarm/bin/../lib/gcc/arm-eabi/4.4.2/../../../../arm-eabi/lib/thumb/thumb2\libc.a(lib_a-freer.o)
                                                  c:/tools/devkitpro/devkitarm/bin/../lib/gcc/arm-eabi/4.4.2/../../../../arm-eabi/lib/thumb/thumb2\libc.a(lib_a-mallocr.o)
_start                                            c:/tools/devkitpro/devkitarm/bin/../lib/gcc/arm-eabi/4.4.2/../../../../arm-eabi/lib/thumb/thumb2/crt0.o
_write_r                                          c:/tools/devkitpro/devkitarm/bin/../lib/gcc/arm-eabi/4.4.2/../../../../arm-eabi/lib/thumb/thumb2\libsysbase.a(write.o)
                                                  c:/tools/devkitpro/devkitarm/bin/../lib/gcc/arm-eabi/4.4.2/../../../../arm-eabi/lib/thumb/thumb2\libc.a(lib_a-stdio.o)
assert_failed                                     dbg/bsp.o
                                                  dbg/startup_stm32f10x_cl.o
atexit                                            c:/tools/devkitpro/devkitarm/bin/../lib/gcc/arm-eabi/4.4.2/../../../../arm-eabi/lib/thumb/thumb2\libc.a(lib_a-atexit.o)
                                                  c:/tools/devkitpro/devkitarm/bin/../lib/gcc/arm-eabi/4.4.2/../../../../arm-eabi/lib/thumb/thumb2/crt0.o
calloc                                            dbg/no_heap.o
devoptab_list                                     c:/tools/devkitpro/devkitarm/bin/../lib/gcc/arm-eabi/4.4.2/../../../../arm-eabi/lib/thumb/thumb2\libsysbase.a(iosupport.o)
                                                  c:/tools/devkitpro/devkitarm/bin/../lib/gcc/arm-eabi/4.4.2/../../../../arm-eabi/lib/thumb/thumb2\libsysbase.a(write.o)
                                                  c:/tools/devkitpro/devkitarm/bin/../lib/gcc/arm-eabi/4.4.2/../../../../arm-eabi/lib/thumb/thumb2\libsysbase.a(read.o)
                                                  c:/tools/devkitpro/devkitarm/bin/../lib/gcc/arm-eabi/4.4.2/../../../../arm-eabi/lib/thumb/thumb2\libsysbase.a(lseek.o)
                                                  c:/tools/devkitpro/devkitarm/bin/../lib/gcc/arm-eabi/4.4.2/../../../../arm-eabi/lib/thumb/thumb2\libsysbase.a(close.o)
dotab_stdnull                                     c:/tools/devkitpro/devkitarm/bin/../lib/gcc/arm-eabi/4.4.2/../../../../arm-eabi/lib/thumb/thumb2\libsysbase.a(iosupport.o)
exit                                              c:/tools/devkitpro/devkitarm/bin/../lib/gcc/arm-eabi/4.4.2/../../../../arm-eabi/lib/thumb/thumb2\libc.a(lib_a-exit.o)
                                                  c:/tools/devkitpro/devkitarm/bin/../lib/gcc/arm-eabi/4.4.2/../../../../arm-eabi/lib/thumb/thumb2/crt0.o
fake_heap_end                                     c:/tools/devkitpro/devkitarm/bin/../lib/gcc/arm-eabi/4.4.2/../../../../arm-eabi/lib/thumb/thumb2\libsysbase.a(malloc_vars.o)
                                                  c:/tools/devkitpro/devkitarm/bin/../lib/gcc/arm-eabi/4.4.2/../../../../arm-eabi/lib/thumb/thumb2\libsysbase.a(sbrk.o)
fake_heap_start                                   c:/tools/devkitpro/devkitarm/bin/../lib/gcc/arm-eabi/4.4.2/../../../../arm-eabi/lib/thumb/thumb2\libsysbase.a(malloc_vars.o)
                                                  c:/tools/devkitpro/devkitarm/bin/../lib/gcc/arm-eabi/4.4.2/../../../../arm-eabi/lib/thumb/thumb2\libsysbase.a(sbrk.o)
fclose                                            c:/tools/devkitpro/devkitarm/bin/../lib/gcc/arm-eabi/4.4.2/../../../../arm-eabi/lib/thumb/thumb2\libc.a(lib_a-fclose.o)
                                                  c:/tools/devkitpro/devkitarm/bin/../lib/gcc/arm-eabi/4.4.2/../../../../arm-eabi/lib/thumb/thumb2\libc.a(lib_a-findfp.o)
fflush                                            c:/tools/devkitpro/devkitarm/bin/../lib/gcc/arm-eabi/4.4.2/../../../../arm-eabi/lib/thumb/thumb2\libc.a(lib_a-fflush.o)
free                                              dbg/no_heap.o
                                                  c:/tools/devkitpro/devkitarm/bin/../lib/gcc/arm-eabi/4.4.2/../../../../arm-eabi/lib/thumb/thumb2\libsysbase.a(handle_manager.o)
                                                  c:/tools/devkitpro/devkitarm/bin/../lib/gcc/arm-eabi/4.4.2/../../../../arm-eabi/lib/thumb/thumb2\libc.a(lib_a-__call_atexit.o)
g_pfnVectors                                      dbg/startup_stm32f10x_cl.o
hardware_init_hook                                c:/tools/devkitpro/devkitarm/bin/../lib/gcc/arm-eabi/4.4.2/../../../../arm-eabi/lib/thumb/thumb2/crt0.o
main                                              dbg/main.o
                                                  dbg/startup_stm32f10x_cl.o
                                                  c:/tools/devkitpro/devkitarm/bin/../lib/gcc/arm-eabi/4.4.2/../../../../arm-eabi/lib/thumb/thumb2/crt0.o
malloc                                            dbg/no_heap.o
                                                  c:/tools/devkitpro/devkitarm/bin/../lib/gcc/arm-eabi/4.4.2/../../../../arm-eabi/lib/thumb/thumb2\libsysbase.a(handle_manager.o)
                                                  c:/tools/devkitpro/devkitarm/bin/../lib/gcc/arm-eabi/4.4.2/../../../../arm-eabi/lib/thumb/thumb2\libc.a(lib_a-__atexit.o)
memset                                            c:/tools/devkitpro/devkitarm/bin/../lib/gcc/arm-eabi/4.4.2/../../../../arm-eabi/lib/thumb/thumb2\libc.a(lib_a-memset.o)
                                                  c:/tools/devkitpro/devkitarm/bin/../lib/gcc/arm-eabi/4.4.2/../../../../arm-eabi/lib/thumb/thumb2\libc.a(lib_a-findfp.o)
                                                  c:/tools/devkitpro/devkitarm/bin/../lib/gcc/arm-eabi/4.4.2/../../../../arm-eabi/lib/thumb/thumb2/crt0.o
setDefaultDevice                                  c:/tools/devkitpro/devkitarm/bin/../lib/gcc/arm-eabi/4.4.2/../../../../arm-eabi/lib/thumb/thumb2\libsysbase.a(iosupport.o)
software_init_hook                                c:/tools/devkitpro/devkitarm/bin/../lib/gcc/arm-eabi/4.4.2/../../../../arm-eabi/lib/thumb/thumb2/crt0.o
start                                             c:/tools/devkitpro/devkitarm/bin/../lib/gcc/arm-eabi/4.4.2/../../../../arm-eabi/lib/thumb/thumb2/crt0.o
strchr                                            c:/tools/devkitpro/devkitarm/bin/../lib/gcc/arm-eabi/4.4.2/../../../../arm-eabi/lib/thumb/thumb2\libc.a(lib_a-strchr.o)
                                                  c:/tools/devkitpro/devkitarm/bin/../lib/gcc/arm-eabi/4.4.2/../../../../arm-eabi/lib/thumb/thumb2\libsysbase.a(iosupport.o)
strcmp                                            c:/tools/devkitpro/devkitarm/bin/../lib/gcc/arm-eabi/4.4.2/../../../../arm-eabi/lib/thumb/thumb2\libc.a(lib_a-strcmp.o)
                                                  c:/tools/devkitpro/devkitarm/bin/../lib/gcc/arm-eabi/4.4.2/../../../../arm-eabi/lib/thumb/thumb2\libsysbase.a(iosupport.o)
strlen                                            c:/tools/devkitpro/devkitarm/bin/../lib/gcc/arm-eabi/4.4.2/../../../../arm-eabi/lib/thumb/thumb2\libc.a(lib_a-strlen.o)
                                                  c:/tools/devkitpro/devkitarm/bin/../lib/gcc/arm-eabi/4.4.2/../../../../arm-eabi/lib/thumb/thumb2\libsysbase.a(iosupport.o)
strncmp                                           c:/tools/devkitpro/devkitarm/bin/../lib/gcc/arm-eabi/4.4.2/../../../../arm-eabi/lib/thumb/thumb2\libc.a(lib_a-strncmp.o)
                                                  c:/tools/devkitpro/devkitarm/bin/../lib/gcc/arm-eabi/4.4.2/../../../../arm-eabi/lib/thumb/thumb2\libsysbase.a(iosupport.o)
vMAC_IRQHandler                                   dbg/startup_stm32f10x_cl.o
